ccopy_reg
_reconstructor
p0
(copentuner.search.manipulator
ConfigurationManipulator
p1
c__builtin__
object
p2
Ntp3
Rp4
(dp5
S'search_driver'
p6
NsS'config_type'
p7
c__builtin__
dict
p8
sS'params'
p9
(lp10
g0
(copentuner.search.manipulator
EnumParameter
p11
g2
Ntp12
Rp13
(dp14
S'name'
p15
S'UseSerialGC'
p16
sS'parent'
p17
g4
sS'options'
p18
(lp19
S'on'
p20
aS'off'
p21
asbag0
(g11
g2
Ntp22
Rp23
(dp24
g15
S'UseParallelOldGC'
p25
sg17
g4
sg18
(lp26
g20
ag21
asbag0
(g11
g2
Ntp27
Rp28
(dp29
g15
S'UseParallelGC'
p30
sg17
g4
sg18
(lp31
g20
ag21
asbag0
(g11
g2
Ntp32
Rp33
(dp34
g15
S'UseConcMarkSweepGC'
p35
sg17
g4
sg18
(lp36
g20
ag21
asbag0
(g11
g2
Ntp37
Rp38
(dp39
g15
S'UseParNewGC'
p40
sg17
g4
sg18
(lp41
g20
ag21
asbag0
(g11
g2
Ntp42
Rp43
(dp44
g15
S'UseG1GC'
p45
sg17
g4
sg18
(lp46
g20
ag21
asbag0
(g11
g2
Ntp47
Rp48
(dp49
g15
S'ResizePLAB'
p50
sg17
g4
sg18
(lp51
g20
ag21
asbag0
(g11
g2
Ntp52
Rp53
(dp54
g15
S'ResizeOldPLAB'
p55
sg17
g4
sg18
(lp56
g20
ag21
asbag0
(g11
g2
Ntp57
Rp58
(dp59
g15
S'AlwaysPreTouch'
p60
sg17
g4
sg18
(lp61
g20
ag21
asbag0
(g11
g2
Ntp62
Rp63
(dp64
g15
S'ParallelRefProcEnabled'
p65
sg17
g4
sg18
(lp66
g20
ag21
asbag0
(g11
g2
Ntp67
Rp68
(dp69
g15
S'ParallelRefProcBalancingEnabled'
p70
sg17
g4
sg18
(lp71
g20
ag21
asbag0
(g11
g2
Ntp72
Rp73
(dp74
g15
S'UseTLAB'
p75
sg17
g4
sg18
(lp76
g20
ag21
asbag0
(g11
g2
Ntp77
Rp78
(dp79
g15
S'ResizeTLAB'
p80
sg17
g4
sg18
(lp81
g20
ag21
asbag0
(g11
g2
Ntp82
Rp83
(dp84
g15
S'ZeroTLAB'
p85
sg17
g4
sg18
(lp86
g20
ag21
asbag0
(g11
g2
Ntp87
Rp88
(dp89
g15
S'FastTLABRefill'
p90
sg17
g4
sg18
(lp91
g20
ag21
asbag0
(g11
g2
Ntp92
Rp93
(dp94
g15
S'NeverActAsServerClassMachine'
p95
sg17
g4
sg18
(lp96
g20
ag21
asbag0
(g11
g2
Ntp97
Rp98
(dp99
g15
S'AlwaysActAsServerClassMachine'
p100
sg17
g4
sg18
(lp101
g20
ag21
asbag0
(g11
g2
Ntp102
Rp103
(dp104
g15
S'UseAutoGCSelectPolicy'
p105
sg17
g4
sg18
(lp106
g20
ag21
asbag0
(g11
g2
Ntp107
Rp108
(dp109
g15
S'UseAdaptiveSizePolicy'
p110
sg17
g4
sg18
(lp111
g20
ag21
asbag0
(g11
g2
Ntp112
Rp113
(dp114
g15
S'UsePSAdaptiveSurvivorSizePolicy'
p115
sg17
g4
sg18
(lp116
g20
ag21
asbag0
(g11
g2
Ntp117
Rp118
(dp119
g15
S'UseAdaptiveGenerationSizePolicyAtMinorCollection'
p120
sg17
g4
sg18
(lp121
g20
ag21
asbag0
(g11
g2
Ntp122
Rp123
(dp124
g15
S'UseAdaptiveGenerationSizePolicyAtMajorCollection'
p125
sg17
g4
sg18
(lp126
g20
ag21
asbag0
(g11
g2
Ntp127
Rp128
(dp129
g15
S'UseAdaptiveSizePolicyWithSystemGC'
p130
sg17
g4
sg18
(lp131
g20
ag21
asbag0
(g11
g2
Ntp132
Rp133
(dp134
g15
S'UseAdaptiveGCBoundary'
p135
sg17
g4
sg18
(lp136
g20
ag21
asbag0
(g11
g2
Ntp137
Rp138
(dp139
g15
S'UseAdaptiveSizePolicyFootprintGoal'
p140
sg17
g4
sg18
(lp141
g20
ag21
asbag0
(g11
g2
Ntp142
Rp143
(dp144
g15
S'UseAdaptiveSizeDecayMajorGCCost'
p145
sg17
g4
sg18
(lp146
g20
ag21
asbag0
(g11
g2
Ntp147
Rp148
(dp149
g15
S'UseGCOverheadLimit'
p150
sg17
g4
sg18
(lp151
g20
ag21
asbag0
(g11
g2
Ntp152
Rp153
(dp154
g15
S'PrintAdaptiveSizePolicy'
p155
sg17
g4
sg18
(lp156
g20
ag21
asbag0
(g11
g2
Ntp157
Rp158
(dp159
g15
S'DisableExplicitGC'
p160
sg17
g4
sg18
(lp161
g20
ag21
asbag0
(g11
g2
Ntp162
Rp163
(dp164
g15
S'CollectGen0First'
p165
sg17
g4
sg18
(lp166
g20
ag21
asbag0
(g11
g2
Ntp167
Rp168
(dp169
g15
S'BindGCTaskThreadsToCPUs'
p170
sg17
g4
sg18
(lp171
g20
ag21
asbag0
(g11
g2
Ntp172
Rp173
(dp174
g15
S'UseGCTaskAffinity'
p175
sg17
g4
sg18
(lp176
g20
ag21
asbag0
(g11
g2
Ntp177
Rp178
(dp179
g15
S'ParallelGCVerbose'
p180
sg17
g4
sg18
(lp181
g20
ag21
asbag0
(g11
g2
Ntp182
Rp183
(dp184
g15
S'AlwaysTenure'
p185
sg17
g4
sg18
(lp186
g20
ag21
asbag0
(g11
g2
Ntp187
Rp188
(dp189
g15
S'NeverTenure'
p190
sg17
g4
sg18
(lp191
g20
ag21
asbag0
(g11
g2
Ntp192
Rp193
(dp194
g15
S'ScavengeBeforeFullGC'
p195
sg17
g4
sg18
(lp196
g20
ag21
asbag0
(g11
g2
Ntp197
Rp198
(dp199
g15
S'UseMaximumCompactionOnSystemGC'
p200
sg17
g4
sg18
(lp201
g20
ag21
asbag0
(g11
g2
Ntp202
Rp203
(dp204
g15
S'UseCMSInitiatingOccupancyOnly'
p205
sg17
g4
sg18
(lp206
g20
ag21
asbag0
(g11
g2
Ntp207
Rp208
(dp209
g15
S'CMSClassUnloadingEnabled'
p210
sg17
g4
sg18
(lp211
g20
ag21
asbag0
(g11
g2
Ntp212
Rp213
(dp214
g15
g210
sg17
g4
sg18
(lp215
g20
ag21
asbag0
(g11
g2
Ntp216
Rp217
(dp218
g15
S'CMSIncrementalMode'
p219
sg17
g4
sg18
(lp220
g20
ag21
asbag0
(g11
g2
Ntp221
Rp222
(dp223
g15
g219
sg17
g4
sg18
(lp224
g20
ag21
asbag0
(g11
g2
Ntp225
Rp226
(dp227
g15
S'UseCMSBestFit'
p228
sg17
g4
sg18
(lp229
g20
ag21
asbag0
(g11
g2
Ntp230
Rp231
(dp232
g15
S'UseCMSCollectionPassing'
p233
sg17
g4
sg18
(lp234
g20
ag21
asbag0
(g11
g2
Ntp235
Rp236
(dp237
g15
S'CMSAbortSemantics'
p238
sg17
g4
sg18
(lp239
g20
ag21
asbag0
(g11
g2
Ntp240
Rp241
(dp242
g15
S'CMSCleanOnEnter'
p243
sg17
g4
sg18
(lp244
g20
ag21
asbag0
(g11
g2
Ntp245
Rp246
(dp247
g15
S'CMSCompactWhenClearAllSoftRefs'
p248
sg17
g4
sg18
(lp249
g20
ag21
asbag0
(g11
g2
Ntp250
Rp251
(dp252
g15
S'CMSDumpAtPromotionFailure'
p253
sg17
g4
sg18
(lp254
g20
ag21
asbag0
(g11
g2
Ntp255
Rp256
(dp257
g15
S'CMSExtrapolateSweep'
p258
sg17
g4
sg18
(lp259
g20
ag21
asbag0
(g11
g2
Ntp260
Rp261
(dp262
g15
S'CMSIncrementalPacing'
p263
sg17
g4
sg18
(lp264
g20
ag21
asbag0
(g11
g2
Ntp265
Rp266
(dp267
g15
S'CMSLoopWarn'
p268
sg17
g4
sg18
(lp269
g20
ag21
asbag0
(g11
g2
Ntp270
Rp271
(dp272
g15
S'CMSOldPLABResizeQuicker'
p273
sg17
g4
sg18
(lp274
g20
ag21
asbag0
(g11
g2
Ntp275
Rp276
(dp277
g15
S'CMSPermGenPrecleaningEnabled'
p278
sg17
g4
sg18
(lp279
g20
ag21
asbag0
(g11
g2
Ntp280
Rp281
(dp282
g15
S'CMSPrecleanRefLists1'
p283
sg17
g4
sg18
(lp284
g20
ag21
asbag0
(g11
g2
Ntp285
Rp286
(dp287
g15
S'CMSPrecleanRefLists2'
p288
sg17
g4
sg18
(lp289
g20
ag21
asbag0
(g11
g2
Ntp290
Rp291
(dp292
g15
S'CMSPrecleanSurvivors1'
p293
sg17
g4
sg18
(lp294
g20
ag21
asbag0
(g11
g2
Ntp295
Rp296
(dp297
g15
S'CMSPrecleanSurvivors2'
p298
sg17
g4
sg18
(lp299
g20
ag21
asbag0
(g11
g2
Ntp300
Rp301
(dp302
g15
S'CMSPrecleaningEnabled'
p303
sg17
g4
sg18
(lp304
g20
ag21
asbag0
(g11
g2
Ntp305
Rp306
(dp307
g15
S'CMSPrintChunksInDump'
p308
sg17
g4
sg18
(lp309
g20
ag21
asbag0
(g11
g2
Ntp310
Rp311
(dp312
g15
S'CMSPrintObjectsInDump'
p313
sg17
g4
sg18
(lp314
g20
ag21
asbag0
(g11
g2
Ntp315
Rp316
(dp317
g15
S'CMSReplenishIntermediate'
p318
sg17
g4
sg18
(lp319
g20
ag21
asbag0
(g11
g2
Ntp320
Rp321
(dp322
g15
S'CMSScavengeBeforeRemark'
p323
sg17
g4
sg18
(lp324
g20
ag21
asbag0
(g11
g2
Ntp325
Rp326
(dp327
g15
S'CMSSplitIndexedFreeListBlocks'
p328
sg17
g4
sg18
(lp329
g20
ag21
asbag0
(g11
g2
Ntp330
Rp331
(dp332
g15
S'CMSYield'
p333
sg17
g4
sg18
(lp334
g20
ag21
asbag0
(g11
g2
Ntp335
Rp336
(dp337
g15
S'ExplicitGCInvokesConcurrent'
p338
sg17
g4
sg18
(lp339
g20
ag21
asbag0
(g11
g2
Ntp340
Rp341
(dp342
g15
S'ExplicitGCInvokesConcurrentAndUnloadsClasses'
p343
sg17
g4
sg18
(lp344
g20
ag21
asbag0
(g11
g2
Ntp345
Rp346
(dp347
g15
S'ParGCUseLocalOverflow'
p348
sg17
g4
sg18
(lp349
g20
ag21
asbag0
(g11
g2
Ntp350
Rp351
(dp352
g15
S'ParGCTrimOverflow'
p353
sg17
g4
sg18
(lp354
g20
ag21
asbag0
(g11
g2
Ntp355
Rp356
(dp357
g15
S'CMSParallelRemarkEnabled'
p358
sg17
g4
sg18
(lp359
g20
ag21
asbag0
(g11
g2
Ntp360
Rp361
(dp362
g15
S'CMSParallelSurvivorRemarkEnabled'
p363
sg17
g4
sg18
(lp364
g20
ag21
asbag0
(g11
g2
Ntp365
Rp366
(dp367
g15
S'CMSPLABRecordAlways'
p368
sg17
g4
sg18
(lp369
g20
ag21
asbag0
(g11
g2
Ntp370
Rp371
(dp372
g15
S'CMSConcurrentMTEnabled'
p373
sg17
g4
sg18
(lp374
g20
ag21
asbag0
(g11
g2
Ntp375
Rp376
(dp377
g15
S'G1UseAdaptiveConcRefinement'
p378
sg17
g4
sg18
(lp379
g20
ag21
asbag0
(g11
g2
Ntp380
Rp381
(dp382
g15
S'UseCompiler'
p383
sg17
g4
sg18
(lp384
g20
ag21
asbag0
(g11
g2
Ntp385
Rp386
(dp387
g15
S'UseCounterDecay'
p388
sg17
g4
sg18
(lp389
g20
ag21
asbag0
(g11
g2
Ntp390
Rp391
(dp392
g15
S'AlwaysCompileLoopMethods'
p393
sg17
g4
sg18
(lp394
g20
ag21
asbag0
(g11
g2
Ntp395
Rp396
(dp397
g15
S'DontCompileHugeMethods'
p398
sg17
g4
sg18
(lp399
g20
ag21
asbag0
(g11
g2
Ntp400
Rp401
(dp402
g15
S'TieredCompilation'
p403
sg17
g4
sg18
(lp404
g20
ag21
asbag0
(g11
g2
Ntp405
Rp406
(dp407
g15
S'PrintTieredEvents'
p408
sg17
g4
sg18
(lp409
g20
ag21
asbag0
(copentuner.search.manipulator
IntegerParameter
p410
g2
Ntp411
Rp412
(dp413
S'max_value'
p414
I6144
sS'min_value'
p415
I2048
sS'value_type'
p416
c__builtin__
int
p417
sg15
S'YoungPLABSize'
p418
sg17
g4
sbag0
(g410
g2
Ntp419
Rp420
(dp421
g414
I1536
sg415
I512
sg416
g417
sg15
S'OldPLABSize'
p422
sg17
g4
sbag0
(g410
g2
Ntp423
Rp424
(dp425
g414
I300
sg415
I100
sg416
g417
sg15
S'GCTaskTimeStampEntries'
p426
sg17
g4
sbag0
(g410
g2
Ntp427
Rp428
(dp429
g414
I15
sg415
I5
sg416
g417
sg15
S'TargetPLABWastePct'
p430
sg17
g4
sbag0
(g410
g2
Ntp431
Rp432
(dp433
g414
I112
sg415
I37
sg416
g417
sg15
S'PLABWeight'
p434
sg17
g4
sbag0
(g410
g2
Ntp435
Rp436
(dp437
g414
I75
sg415
I25
sg416
g417
sg15
S'OldPLABWeight'
p438
sg17
g4
sbag0
(g410
g2
Ntp439
Rp440
(dp441
g414
I6291456
sg415
I2097152
sg416
g417
sg15
S'MarkStackSize'
p442
sg17
g4
sbag0
(g410
g2
Ntp443
Rp444
(dp445
g414
I805306368
sg415
I268435456
sg416
g417
sg15
S'MarkStackSizeMax'
p446
sg17
g4
sbag0
(g410
g2
Ntp447
Rp448
(dp449
g414
I0
sg415
I0
sg416
g417
sg15
S'RefDiscoveryPolicy'
p450
sg17
g4
sbag0
(g410
g2
Ntp451
Rp452
(dp453
g414
I67
sg415
I22
sg416
g417
sg15
S'InitiatingHeapOccupancyPercent'
p454
sg17
g4
sbag0
(g410
g2
Ntp455
Rp456
(dp457
g414
I206158430208
sg415
I68719476736
sg416
g417
sg15
S'MaxRAM'
p458
sg17
g4
sbag0
(g410
g2
Ntp459
Rp460
(dp461
g414
I0
sg415
I0
sg416
g417
sg15
S'ErgoHeapSizeLimit'
p462
sg17
g4
sbag0
(g410
g2
Ntp463
Rp464
(dp465
g414
I6
sg415
I2
sg416
g417
sg15
S'MaxRAMFraction'
p466
sg17
g4
sbag0
(g410
g2
Ntp467
Rp468
(dp469
g414
I6
sg415
I2
sg416
g417
sg15
S'DefaultMaxRAMFraction'
p470
sg17
g4
sbag0
(g410
g2
Ntp471
Rp472
(dp473
g414
I3
sg415
I1
sg416
g417
sg15
S'MinRAMFraction'
p474
sg17
g4
sbag0
(g410
g2
Ntp475
Rp476
(dp477
g414
I96
sg415
I32
sg416
g417
sg15
S'InitialRAMFraction'
p478
sg17
g4
sbag0
(g410
g2
Ntp479
Rp480
(dp481
g414
I7500
sg415
I2500
sg416
g417
sg15
S'AutoGCSelectPauseMillis'
p482
sg17
g4
sbag0
(g410
g2
Ntp483
Rp484
(dp485
g414
I0
sg415
I0
sg416
g417
sg15
S'AdaptiveSizeThroughPutPolicy'
p486
sg17
g4
sbag0
(g410
g2
Ntp487
Rp488
(dp489
g414
I0
sg415
I0
sg416
g417
sg15
S'AdaptiveSizePausePolicy'
p490
sg17
g4
sbag0
(g410
g2
Ntp491
Rp492
(dp493
g414
I30
sg415
I10
sg416
g417
sg15
S'AdaptiveSizePolicyInitializingSteps'
p494
sg17
g4
sbag0
(g410
g2
Ntp495
Rp496
(dp497
g414
I0
sg415
I0
sg416
g417
sg15
S'AdaptiveSizePolicyOutputInterval'
p498
sg17
g4
sbag0
(g410
g2
Ntp499
Rp500
(dp501
g414
I15
sg415
I5
sg416
g417
sg15
S'AdaptiveSizePolicyWeight'
p502
sg17
g4
sbag0
(g410
g2
Ntp503
Rp504
(dp505
g414
I37
sg415
I12
sg416
g417
sg15
S'AdaptiveTimeWeight'
p506
sg17
g4
sbag0
(g410
g2
Ntp507
Rp508
(dp509
g414
I1
sg415
I0
sg416
g417
sg15
S'PausePadding'
p510
sg17
g4
sbag0
(g410
g2
Ntp511
Rp512
(dp513
g414
I4
sg415
I1
sg416
g417
sg15
S'PromotedPadding'
p514
sg17
g4
sbag0
(g410
g2
Ntp515
Rp516
(dp517
g414
I4
sg415
I1
sg416
g417
sg15
S'SurvivorPadding'
p518
sg17
g4
sbag0
(g410
g2
Ntp519
Rp520
(dp521
g414
I30
sg415
I10
sg416
g417
sg15
S'AdaptivePermSizeWeight'
p522
sg17
g4
sbag0
(g410
g2
Ntp523
Rp524
(dp525
g414
I4
sg415
I1
sg416
g417
sg15
S'PermGenPadding'
p526
sg17
g4
sbag0
(g410
g2
Ntp527
Rp528
(dp529
g414
I15
sg415
I5
sg416
g417
sg15
S'ThresholdTolerance'
p530
sg17
g4
sbag0
(g410
g2
Ntp531
Rp532
(dp533
g414
I75
sg415
I25
sg416
g417
sg15
S'AdaptiveSizePolicyCollectionCostMargin'
p534
sg17
g4
sbag0
(g410
g2
Ntp535
Rp536
(dp537
g414
I30
sg415
I10
sg416
g417
sg15
S'YoungGenerationSizeIncrement'
p538
sg17
g4
sbag0
(g410
g2
Ntp539
Rp540
(dp541
g414
I120
sg415
I40
sg416
g417
sg15
S'YoungGenerationSizeSupplement'
p542
sg17
g4
sbag0
(g410
g2
Ntp543
Rp544
(dp545
g414
I12
sg415
I4
sg416
g417
sg15
S'YoungGenerationSizeSupplementDecay'
p546
sg17
g4
sbag0
(g410
g2
Ntp547
Rp548
(dp549
g414
I30
sg415
I10
sg416
g417
sg15
S'TenuredGenerationSizeIncrement'
p550
sg17
g4
sbag0
(g410
g2
Ntp551
Rp552
(dp553
g414
I120
sg415
I40
sg416
g417
sg15
S'TenuredGenerationSizeSupplement'
p554
sg17
g4
sbag0
(g410
g2
Ntp555
Rp556
(dp557
g414
I3
sg415
I1
sg416
g417
sg15
S'TenuredGenerationSizeSupplementDecay'
p558
sg17
g4
sbag0
(g410
g2
Ntp559
Rp560
(dp561
g414
L27670116110564327424L
sg415
L9223372036854775808L
sg416
g417
sg15
S'MaxGCPauseMillis'
p562
sg17
g4
sbag0
(g410
g2
Ntp563
Rp564
(dp565
g414
I0
sg415
I0
sg416
g417
sg15
S'GCPauseIntervalMillis'
p566
sg17
g4
sbag0
(g410
g2
Ntp567
Rp568
(dp569
g414
L27670116110564327424L
sg415
L9223372036854775808L
sg416
g417
sg15
S'MaxGCMinorPauseMillis'
p570
sg17
g4
sbag0
(g410
g2
Ntp571
Rp572
(dp573
g414
I148
sg415
I49
sg416
g417
sg15
S'GCTimeRatio'
p574
sg17
g4
sbag0
(g410
g2
Ntp575
Rp576
(dp577
g414
I6
sg415
I2
sg416
g417
sg15
S'AdaptiveSizeDecrementScaleFactor'
p578
sg17
g4
sbag0
(g410
g2
Ntp579
Rp580
(dp581
g414
I15
sg415
I5
sg416
g417
sg15
S'AdaptiveSizeMajorGCDecayTimeScale'
p582
sg17
g4
sbag0
(g410
g2
Ntp583
Rp584
(dp585
g414
I4
sg415
I1
sg416
g417
sg15
S'MinSurvivorRatio'
p586
sg17
g4
sbag0
(g410
g2
Ntp587
Rp588
(dp589
g414
I12
sg415
I4
sg416
g417
sg15
S'InitialSurvivorRatio'
p590
sg17
g4
sbag0
(g410
g2
Ntp591
Rp592
(dp593
g414
I402653184
sg415
I134217728
sg416
g417
sg15
S'BaseFootPrintEstimate'
p594
sg17
g4
sbag0
(g410
g2
Ntp595
Rp596
(dp597
g414
I147
sg415
I49
sg416
g417
sg15
S'GCTimeLimit'
p598
sg17
g4
sbag0
(g410
g2
Ntp599
Rp600
(dp601
g414
I3
sg415
I1
sg416
g417
sg15
S'GCHeapFreeLimit'
p602
sg17
g4
sbag0
(g410
g2
Ntp603
Rp604
(dp605
g414
I864
sg415
I288
sg416
g417
sg15
S'PrefetchCopyIntervalInBytes'
p606
sg17
g4
sbag0
(g410
g2
Ntp607
Rp608
(dp609
g414
I864
sg415
I288
sg416
g417
sg15
S'PrefetchScanIntervalInBytes'
p610
sg17
g4
sbag0
(g410
g2
Ntp611
Rp612
(dp613
g414
I1
sg415
I0
sg416
g417
sg15
S'PrefetchFieldsAhead'
p614
sg17
g4
sbag0
(g410
g2
Ntp615
Rp616
(dp617
g414
I6
sg415
I2
sg416
g417
sg15
S'ProcessDistributionStride'
p618
sg17
g4
sbag0
(g410
g2
Ntp619
Rp620
(dp621
g414
I12
sg415
I4
sg416
g417
sg15
S'ParallelGCThreads'
p622
sg17
g4
sbag0
(g410
g2
Ntp623
Rp624
(dp625
g414
I15
sg415
I5
sg416
g417
sg15
S'ParallelGCBufferWastePct'
p626
sg17
g4
sbag0
(g410
g2
Ntp627
Rp628
(dp629
g414
I75
sg415
I25
sg416
g417
sg15
S'ParallelOldDeadWoodLimiterMean'
p630
sg17
g4
sbag0
(g410
g2
Ntp631
Rp632
(dp633
g414
I120
sg415
I40
sg416
g417
sg15
S'ParallelOldDeadWoodLimiterStdDev'
p634
sg17
g4
sbag0
(g410
g2
Ntp635
Rp636
(dp637
g414
I0
sg415
I-1
sg416
g417
sg15
S'CMSInitiatingOccupancyFraction'
p638
sg17
g4
sbag0
(g410
g2
Ntp639
Rp640
(dp641
g414
I0
sg415
I0
sg416
g417
sg15
S'ConcGCThreads'
p642
sg17
g4
sbag0
(g410
g2
Ntp643
Rp644
(dp645
g414
I0
sg415
I-1
sg416
g417
sg15
S'CMSInitiatingPermOccupancyFraction'
p646
sg17
g4
sbag0
(g410
g2
Ntp647
Rp648
(dp649
g414
I0
sg415
I0
sg416
g417
sg15
S'CMSIncrementalDutyCycleMin'
p650
sg17
g4
sbag0
(g410
g2
Ntp651
Rp652
(dp653
g414
I15
sg415
I5
sg416
g417
sg15
S'CMSIncrementalDutyCycle'
p654
sg17
g4
sbag0
(g410
g2
Ntp655
Rp656
(dp657
g414
I150
sg415
I50
sg416
g417
sg15
S'CMSAbortablePrecleanMinWorkPerIteration'
p658
sg17
g4
sbag0
(g410
g2
Ntp659
Rp660
(dp661
g414
I150
sg415
I50
sg416
g417
sg15
S'CMSAbortablePrecleanWaitMillis'
p662
sg17
g4
sbag0
(g410
g2
Ntp663
Rp664
(dp665
g414
I15728640
sg415
I5242880
sg416
g417
sg15
S'CMSBitMapYieldQuantum'
p666
sg17
g4
sbag0
(g410
g2
Ntp667
Rp668
(dp669
g414
I75
sg415
I25
sg416
g417
sg15
S'CMSBootstrapOccupancy'
p670
sg17
g4
sbag0
(g410
g2
Ntp671
Rp672
(dp673
g414
I0
sg415
I0
sg416
g417
sg15
S'CMSClassUnloadingMaxInterval'
p674
sg17
g4
sbag0
(g410
g2
Ntp675
Rp676
(dp677
g414
I48
sg415
I16
sg416
g417
sg15
S'CMSConcMarkMultiple'
p678
sg17
g4
sbag0
(g410
g2
Ntp679
Rp680
(dp681
g414
I15
sg415
I5
sg416
g417
sg15
S'CMSCoordinatorYieldSleepCount'
p682
sg17
g4
sbag0
(g410
g2
Ntp683
Rp684
(dp685
g414
I75
sg415
I25
sg416
g417
sg15
S'CMSExpAvgFactor'
p686
sg17
g4
sbag0
(g410
g2
Ntp687
Rp688
(dp689
g414
I0
sg415
I0
sg416
g417
sg15
S'CMSFullGCsBeforeCompaction'
p690
sg17
g4
sbag0
(g410
g2
Ntp691
Rp692
(dp693
g414
I0
sg415
I0
sg416
g417
sg15
S'CMSIncrementalOffset'
p694
sg17
g4
sbag0
(g410
g2
Ntp695
Rp696
(dp697
g414
I15
sg415
I5
sg416
g417
sg15
S'CMSIncrementalSafetyFactor'
p698
sg17
g4
sbag0
(g410
g2
Ntp699
Rp700
(dp701
g414
I6
sg415
I2
sg416
g417
sg15
S'CMSIndexedFreeListReplenish'
p702
sg17
g4
sbag0
(g410
g2
Ntp703
Rp704
(dp705
g414
I147
sg415
I49
sg416
g417
sg15
S'CMSIsTooFullPercentage'
p706
sg17
g4
sbag0
(g410
g2
Ntp707
Rp708
(dp709
g414
I1
sg415
I0
sg416
g417
sg15
S'CMSLargeCoalSurplusPercent'
p710
sg17
g4
sbag0
(g410
g2
Ntp711
Rp712
(dp713
g414
I1
sg415
I0
sg416
g417
sg15
S'CMSLargeSplitSurplusPercent'
p714
sg17
g4
sbag0
(g410
g2
Ntp715
Rp716
(dp717
g414
I0
sg415
I0
sg416
g417
sg15
S'CMSMaxAbortablePrecleanLoops'
p718
sg17
g4
sbag0
(g410
g2
Ntp719
Rp720
(dp721
g414
I7500
sg415
I2500
sg416
g417
sg15
S'CMSMaxAbortablePrecleanTime'
p722
sg17
g4
sbag0
(g410
g2
Ntp723
Rp724
(dp725
g414
I1536
sg415
I512
sg416
g417
sg15
S'CMSOldPLABMax'
p726
sg17
g4
sbag0
(g410
g2
Ntp727
Rp728
(dp729
g414
I24
sg415
I8
sg416
g417
sg15
S'CMSOldPLABMin'
p730
sg17
g4
sbag0
(g410
g2
Ntp731
Rp732
(dp733
g414
I6
sg415
I2
sg416
g417
sg15
S'CMSOldPLABNumRefills'
p734
sg17
g4
sbag0
(g410
g2
Ntp735
Rp736
(dp737
g414
I3
sg415
I1
sg416
g417
sg15
S'CMSOldPLABReactivityFactor'
p738
sg17
g4
sbag0
(g410
g2
Ntp739
Rp740
(dp741
g414
I6
sg415
I2
sg416
g417
sg15
S'CMSOldPLABToleranceFactor'
p742
sg17
g4
sbag0
(g410
g2
Ntp743
Rp744
(dp745
g414
I4
sg415
I1
sg416
g417
sg15
S'CMSPrecleanDenominator'
p746
sg17
g4
sbag0
(g410
g2
Ntp747
Rp748
(dp749
g414
I4
sg415
I1
sg416
g417
sg15
S'CMSPrecleanIter'
p750
sg17
g4
sbag0
(g410
g2
Ntp751
Rp752
(dp753
g414
I24
sg415
I8
sg416
g417
sg15
S'CMSParPromoteBlocksToClaim'
p754
sg17
g4
sbag0
(g410
g2
Ntp755
Rp756
(dp757
g414
I3
sg415
I1
sg416
g417
sg15
S'CMSPrecleanNumerator'
p758
sg17
g4
sbag0
(g410
g2
Ntp759
Rp760
(dp761
g414
I1500
sg415
I500
sg416
g417
sg15
S'CMSPrecleanThreshold'
p762
sg17
g4
sbag0
(g410
g2
Ntp763
Rp764
(dp765
g414
I1
sg415
I0
sg416
g417
sg15
S'CMSRemarkVerifyVariant'
p766
sg17
g4
sbag0
(g410
g2
Ntp767
Rp768
(dp769
g414
I48
sg415
I16
sg416
g417
sg15
S'CMSRescanMultiple'
p770
sg17
g4
sbag0
(g410
g2
Ntp771
Rp772
(dp773
g414
I1572864
sg415
I524288
sg416
g417
sg15
S'CMSRevisitStackSize'
p774
sg17
g4
sbag0
(g410
g2
Ntp775
Rp776
(dp777
g414
I24576
sg415
I8192
sg416
g417
sg15
S'CMSSamplingGrain'
p778
sg17
g4
sbag0
(g410
g2
Ntp779
Rp780
(dp781
g414
I75
sg415
I25
sg416
g417
sg15
S'CMSScheduleRemarkEdenPenetration'
p782
sg17
g4
sbag0
(g410
g2
Ntp783
Rp784
(dp785
g414
I3145728
sg415
I1048576
sg416
g417
sg15
S'CMSScheduleRemarkEdenSizeThreshold'
p786
sg17
g4
sbag0
(g410
g2
Ntp787
Rp788
(dp789
g414
I7
sg415
I2
sg416
g417
sg15
S'CMSScheduleRemarkSamplingRatio'
p790
sg17
g4
sbag0
(g410
g2
Ntp791
Rp792
(dp793
g414
I1
sg415
I0
sg416
g417
sg15
S'CMSSmallCoalSurplusPercent'
p794
sg17
g4
sbag0
(g410
g2
Ntp795
Rp796
(dp797
g414
I1
sg415
I0
sg416
g417
sg15
S'CMSSmallSplitSurplusPercent'
p798
sg17
g4
sbag0
(g410
g2
Ntp799
Rp800
(dp801
g414
I120
sg415
I40
sg416
g417
sg15
S'CMSTriggerPermRatio'
p802
sg17
g4
sbag0
(g410
g2
Ntp803
Rp804
(dp805
g414
I120
sg415
I40
sg416
g417
sg15
S'CMSTriggerRatio'
p806
sg17
g4
sbag0
(g410
g2
Ntp807
Rp808
(dp809
g414
I3000
sg415
I1000
sg416
g417
sg15
S'CMSWaitDuration'
p810
sg17
g4
sbag0
(g410
g2
Ntp811
Rp812
(dp813
g414
I15
sg415
I5
sg416
g417
sg15
S'CMSWorkQueueDrainThreshold'
p814
sg17
g4
sbag0
(g410
g2
Ntp815
Rp816
(dp817
g414
I0
sg415
I0
sg416
g417
sg15
S'CMSYieldSleepCount'
p818
sg17
g4
sbag0
(g410
g2
Ntp819
Rp820
(dp821
g414
I1
sg415
I0
sg416
g417
sg15
S'CMS_FLSPadding'
p822
sg17
g4
sbag0
(g410
g2
Ntp823
Rp824
(dp825
g414
I112
sg415
I37
sg416
g417
sg15
S'CMS_FLSWeight'
p826
sg17
g4
sbag0
(g410
g2
Ntp827
Rp828
(dp829
g414
I1
sg415
I0
sg416
g417
sg15
S'CMS_SweepPadding'
p830
sg17
g4
sbag0
(g410
g2
Ntp831
Rp832
(dp833
g414
I15
sg415
I5
sg416
g417
sg15
S'CMS_SweepTimerThresholdMillis'
p834
sg17
g4
sbag0
(g410
g2
Ntp835
Rp836
(dp837
g414
I112
sg415
I37
sg416
g417
sg15
S'CMS_SweepWeight'
p838
sg17
g4
sbag0
(g410
g2
Ntp839
Rp840
(dp841
g414
I75
sg415
I25
sg416
g417
sg15
S'ParGCArrayScanChunk'
p842
sg17
g4
sbag0
(g410
g2
Ntp843
Rp844
(dp845
g414
I30
sg415
I10
sg416
g417
sg15
S'ParGCDesiredObjsFromOverflowList'
p846
sg17
g4
sbag0
(g410
g2
Ntp847
Rp848
(dp849
g414
I100663296
sg415
I33554432
sg416
g417
sg15
S'CMSYoungGenPerWorker'
p850
sg17
g4
sbag0
(g410
g2
Ntp851
Rp852
(dp853
g414
I75
sg415
I25
sg416
g417
sg15
S'G1ConfidencePercent'
p854
sg17
g4
sbag0
(g410
g2
Ntp855
Rp856
(dp857
g414
I15
sg415
I5
sg416
g417
sg15
S'G1ConcMarkStepDurationMillis'
p858
sg17
g4
sbag0
(g410
g2
Ntp859
Rp860
(dp861
g414
I15
sg415
I5
sg416
g417
sg15
S'G1RefProcDrainInterval'
p862
sg17
g4
sbag0
(g410
g2
Ntp863
Rp864
(dp865
g414
I1536
sg415
I512
sg416
g417
sg15
S'G1SATBBufferSize'
p866
sg17
g4
sbag0
(g410
g2
Ntp867
Rp868
(dp869
g414
I90
sg415
I30
sg416
g417
sg15
S'G1SATBBufferEnqueueingThresholdPercent'
p870
sg17
g4
sbag0
(g410
g2
Ntp871
Rp872
(dp873
g414
I384
sg415
I128
sg416
g417
sg15
S'G1UpdateBufferSize'
p874
sg17
g4
sbag0
(g410
g2
Ntp875
Rp876
(dp877
g414
I0
sg415
I0
sg416
g417
sg15
S'G1ConcRefinementYellowZone'
p878
sg17
g4
sbag0
(g410
g2
Ntp879
Rp880
(dp881
g414
I0
sg415
I0
sg416
g417
sg15
S'G1ConcRefinementRedZone'
p882
sg17
g4
sbag0
(g410
g2
Ntp883
Rp884
(dp885
g414
I0
sg415
I0
sg416
g417
sg15
S'G1ConcRefinementGreenZone'
p886
sg17
g4
sbag0
(g410
g2
Ntp887
Rp888
(dp889
g414
I450
sg415
I150
sg416
g417
sg15
S'G1ConcRefinementServiceIntervalMillis'
p890
sg17
g4
sbag0
(g410
g2
Ntp891
Rp892
(dp893
g414
I0
sg415
I0
sg416
g417
sg15
S'G1ConcRefinementThresholdStep'
p894
sg17
g4
sbag0
(g410
g2
Ntp895
Rp896
(dp897
g414
I15
sg415
I5
sg416
g417
sg15
S'G1RSetUpdatingPauseTimePercent'
p898
sg17
g4
sbag0
(g410
g2
Ntp899
Rp900
(dp901
g414
I0
sg415
I0
sg416
g417
sg15
S'G1RSetRegionEntries'
p902
sg17
g4
sbag0
(g410
g2
Ntp903
Rp904
(dp905
g414
I0
sg415
I0
sg416
g417
sg15
S'G1RSetSparseRegionEntries'
p906
sg17
g4
sbag0
(g410
g2
Ntp907
Rp908
(dp909
g414
I15
sg415
I5
sg416
g417
sg15
S'G1ReservePercent'
p910
sg17
g4
sbag0
(g410
g2
Ntp911
Rp912
(dp913
g414
I0
sg415
I0
sg416
g417
sg15
S'G1HeapRegionSize'
p914
sg17
g4
sbag0
(g410
g2
Ntp915
Rp916
(dp917
g414
I0
sg415
I0
sg416
g417
sg15
S'G1ConcRefinementThreads'
p918
sg17
g4
sbag0
(g410
g2
Ntp919
Rp920
(dp921
g414
I96
sg415
I32
sg416
g417
sg15
S'G1RSetScanBlockSize'
p922
sg17
g4
sbag0
(g410
g2
Ntp923
Rp924
(dp925
g414
I15000
sg415
I5000
sg416
g417
sg15
S'CompileThreshold'
p926
sg17
g4
sbag0
(g410
g2
Ntp927
Rp928
(dp929
g414
I150000
sg415
I50000
sg416
g417
sg15
S'BackEdgeThreshold'
p930
sg17
g4
sbag0
(g410
g2
Ntp931
Rp932
(dp933
g414
I210
sg415
I70
sg416
g417
sg15
S'OnStackReplacePercentage'
p934
sg17
g4
sbag0
(g410
g2
Ntp935
Rp936
(dp937
g414
I49
sg415
I16
sg416
g417
sg15
S'InterpreterProfilePercentage'
p938
sg17
g4
sbag0
(g410
g2
Ntp939
Rp940
(dp941
g414
I10
sg415
I3
sg416
g417
sg15
S'Tier0InvokeNotifyFreqLog'
p942
sg17
g4
sbag0
(g410
g2
Ntp943
Rp944
(dp945
g414
I16
sg415
I5
sg416
g417
sg15
S'Tier2InvokeNotifyFreqLog'
p946
sg17
g4
sbag0
(g410
g2
Ntp947
Rp948
(dp949
g414
I15
sg415
I5
sg416
g417
sg15
S'Tier3InvokeNotifyFreqLog'
p950
sg17
g4
sbag0
(g410
g2
Ntp951
Rp952
(dp953
g414
I15
sg415
I5
sg416
g417
sg15
S'Tier0BackedgeNotifyFreqLog'
p954
sg17
g4
sbag0
(g410
g2
Ntp955
Rp956
(dp957
g414
I21
sg415
I7
sg416
g417
sg15
S'Tier2BackedgeNotifyFreqLog'
p958
sg17
g4
sbag0
(g410
g2
Ntp959
Rp960
(dp961
g414
I19
sg415
I6
sg416
g417
sg15
S'Tier3BackedgeNotifyFreqLog'
p962
sg17
g4
sbag0
(g410
g2
Ntp963
Rp964
(dp965
g414
I0
sg415
I0
sg416
g417
sg15
S'Tier2CompileThreshold'
p966
sg17
g4
sbag0
(g410
g2
Ntp967
Rp968
(dp969
g414
I0
sg415
I0
sg416
g417
sg15
S'Tier2BackEdgeThreshold'
p970
sg17
g4
sbag0
(g410
g2
Ntp971
Rp972
(dp973
g414
I300
sg415
I100
sg416
g417
sg15
S'Tier3InvocationThreshold'
p974
sg17
g4
sbag0
(g410
g2
Ntp975
Rp976
(dp977
g414
I150
sg415
I50
sg416
g417
sg15
S'Tier3MinInvocationThreshold'
p978
sg17
g4
sbag0
(g410
g2
Ntp979
Rp980
(dp981
g414
I3000
sg415
I1000
sg416
g417
sg15
S'Tier3CompileThreshold'
p982
sg17
g4
sbag0
(g410
g2
Ntp983
Rp984
(dp985
g414
I90000
sg415
I30000
sg416
g417
sg15
S'Tier3BackEdgeThreshold'
p986
sg17
g4
sbag0
(g410
g2
Ntp987
Rp988
(dp989
g414
I7500
sg415
I2500
sg416
g417
sg15
S'Tier4InvocationThreshold'
p990
sg17
g4
sbag0
(g410
g2
Ntp991
Rp992
(dp993
g414
I900
sg415
I300
sg416
g417
sg15
S'Tier4MinInvocationThreshold'
p994
sg17
g4
sbag0
(g410
g2
Ntp995
Rp996
(dp997
g414
I22500
sg415
I7500
sg416
g417
sg15
S'Tier4CompileThreshold'
p998
sg17
g4
sbag0
(g410
g2
Ntp999
Rp1000
(dp1001
g414
I60000
sg415
I20000
sg416
g417
sg15
S'Tier4BackEdgeThreshold'
p1002
sg17
g4
sbag0
(g410
g2
Ntp1003
Rp1004
(dp1005
g414
I7
sg415
I2
sg416
g417
sg15
S'Tier3DelayOn'
p1006
sg17
g4
sbag0
(g410
g2
Ntp1007
Rp1008
(dp1009
g414
I3
sg415
I1
sg416
g417
sg15
S'Tier3DelayOff'
p1010
sg17
g4
sbag0
(g410
g2
Ntp1011
Rp1012
(dp1013
g414
I7
sg415
I2
sg416
g417
sg15
S'Tier3LoadFeedback'
p1014
sg17
g4
sbag0
(g410
g2
Ntp1015
Rp1016
(dp1017
g414
I4
sg415
I1
sg416
g417
sg15
S'Tier4LoadFeedback'
p1018
sg17
g4
sbag0
(g410
g2
Ntp1019
Rp1020
(dp1021
g414
I75
sg415
I25
sg416
g417
sg15
S'TieredCompileTaskTimeout'
p1022
sg17
g4
sbag0
(g410
g2
Ntp1023
Rp1024
(dp1025
g414
I6
sg415
I2
sg416
g417
sg15
S'TieredStopAtLevel'
p1026
sg17
g4
sbag0
(g410
g2
Ntp1027
Rp1028
(dp1029
g414
I300
sg415
I100
sg416
g417
sg15
S'Tier0ProfilingStartPercentage'
p1030
sg17
g4
sbag0
(g410
g2
Ntp1031
Rp1032
(dp1033
g414
I1
sg415
I0
sg416
g417
sg15
S'TieredRateUpdateMinTime'
p1034
sg17
g4
sbag0
(g410
g2
Ntp1035
Rp1036
(dp1037
g414
I37
sg415
I12
sg416
g417
sg15
S'TieredRateUpdateMaxTime'
p1038
sg17
g4
sbag0
(g11
g2
Ntp1039
Rp1040
(dp1041
g15
S'type'
p1042
sg17
g4
sg18
(lp1043
g20
ag21
asbag0
(g11
g2
Ntp1044
Rp1045
(dp1046
g15
S'name'
p1047
sg17
g4
sg18
(lp1048
g20
ag21
asbag0
(g11
g2
Ntp1049
Rp1050
(dp1051
g15
S'min'
p1052
sg17
g4
sg18
(lp1053
g20
ag21
asbag0
(g11
g2
Ntp1054
Rp1055
(dp1056
g15
S'max'
p1057
sg17
g4
sg18
(lp1058
g20
ag21
asbag0
(g410
g2
Ntp1059
Rp1060
(dp1061
g414
I400
sg415
I0
sg416
g417
sg15
S'StartServers'
p1062
sg17
g4
sbag0
(g410
g2
Ntp1063
Rp1064
(dp1065
g414
I400
sg415
I0
sg416
g417
sg15
S'MinSpareThreads'
p1066
sg17
g4
sbag0
(g410
g2
Ntp1067
Rp1068
(dp1069
g414
I400
sg415
I0
sg416
g417
sg15
S'MaxSpareThreads'
p1070
sg17
g4
sbag0
(g410
g2
Ntp1071
Rp1072
(dp1073
g414
I400
sg415
I0
sg416
g417
sg15
S'ThreadLimit'
p1074
sg17
g4
sbag0
(g410
g2
Ntp1075
Rp1076
(dp1077
g414
I400
sg415
I0
sg416
g417
sg15
S'ThreadsPerChild'
p1078
sg17
g4
sbag0
(g410
g2
Ntp1079
Rp1080
(dp1081
g414
I400
sg415
I0
sg416
g417
sg15
S'MaxRequestWorkers'
p1082
sg17
g4
sbag0
(g410
g2
Ntp1083
Rp1084
(dp1085
g414
I400
sg415
I0
sg416
g417
sg15
S'MaxConnectionsPerChild'
p1086
sg17
g4
sbag0
(g11
g2
Ntp1087
Rp1088
(dp1089
g15
S'type'
p1090
sg17
g4
sg18
(lp1091
g20
ag21
asbag0
(g11
g2
Ntp1092
Rp1093
(dp1094
g15
S'name'
p1095
sg17
g4
sg18
(lp1096
g20
ag21
asbag0
(g11
g2
Ntp1097
Rp1098
(dp1099
g15
S'min'
p1100
sg17
g4
sg18
(lp1101
g20
ag21
asbag0
(g11
g2
Ntp1102
Rp1103
(dp1104
g15
S'max'
p1105
sg17
g4
sg18
(lp1106
g20
ag21
asbag0
(g410
g2
Ntp1107
Rp1108
(dp1109
g414
I100000
sg415
I1
sg416
g417
sg15
S'max_connections'
p1110
sg17
g4
sbag0
(g410
g2
Ntp1111
Rp1112
(dp1113
g414
I1073741824
sg415
I1024
sg416
g417
sg15
S'max_allowed_packet'
p1114
sg17
g4
sbag0
(g410
g2
Ntp1115
Rp1116
(dp1117
g414
I10000
sg415
I1
sg416
g417
sg15
S'max_connect_errors'
p1118
sg17
g4
sbag0
(g410
g2
Ntp1119
Rp1120
(dp1121
g414
I524288
sg415
I1
sg416
g417
sg15
S'table_cache'
p1122
sg17
g4
sbag0
(g410
g2
Ntp1123
Rp1124
(dp1125
g414
I4294967295
sg415
I8
sg416
g417
sg15
S'key_buffer_size'
p1126
sg17
g4
sbag0
(g410
g2
Ntp1127
Rp1128
(dp1129
g414
I8589934592
sg415
I5242880
sg416
g417
sg15
S'innodb_buffer_pool_size'
p1130
sg17
g4
sbag0
(g410
g2
Ntp1131
Rp1132
(dp1133
g414
I4294967295
sg415
I32768
sg416
g417
sg15
S'sort_buffer_size'
p1134
sg17
g4
sbag0
(g410
g2
Ntp1135
Rp1136
(dp1137
g414
I4294967295
sg415
I8200
sg416
g417
sg15
S'read_buffer_size'
p1138
sg17
g4
sbag0
(g410
g2
Ntp1139
Rp1140
(dp1141
g414
I4294967295
sg415
I131072
sg416
g417
sg15
S'thread_stack'
p1142
sg17
g4
sbag0
(g410
g2
Ntp1143
Rp1144
(dp1145
g414
I16384
sg415
I0
sg416
g417
sg15
S'thread_cache_size'
p1146
sg17
g4
sbag0
(g410
g2
Ntp1147
Rp1148
(dp1149
g414
I4294967295
sg415
I0
sg416
g417
sg15
S'query_cache_limit'
p1150
sg17
g4
sbag0
(g410
g2
Ntp1151
Rp1152
(dp1153
g414
I4294967295
sg415
I0
sg416
g417
sg15
S'query_cache_size'
p1154
sg17
g4
sbag0
(g11
g2
Ntp1155
Rp1156
(dp1157
g15
S'type'
p1158
sg17
g4
sg18
(lp1159
g20
ag21
asbag0
(g11
g2
Ntp1160
Rp1161
(dp1162
g15
S'name'
p1163
sg17
g4
sg18
(lp1164
g20
ag21
asbag0
(g11
g2
Ntp1165
Rp1166
(dp1167
g15
S'min'
p1168
sg17
g4
sg18
(lp1169
g20
ag21
asbag0
(g11
g2
Ntp1170
Rp1171
(dp1172
g15
S'max'
p1173
sg17
g4
sg18
(lp1174
g20
ag21
asbag0
(g410
g2
Ntp1175
Rp1176
(dp1177
g414
I1000
sg415
I1
sg416
g417
sg15
S'AJP_acceptorThreadCount'
p1178
sg17
g4
sbag0
(g410
g2
Ntp1179
Rp1180
(dp1181
g414
I10000
sg415
I1
sg416
g417
sg15
S'AJP_maxThreads'
p1182
sg17
g4
sbag0
(g410
g2
Ntp1183
Rp1184
(dp1185
g414
I10000
sg415
I1
sg416
g417
sg15
S'AJP_acceptCount'
p1186
sg17
g4
sbag0
(g410
g2
Ntp1187
Rp1188
(dp1189
g414
I10000
sg415
I1
sg416
g417
sg15
S'AJP_minSpareThreads'
p1190
sg17
g4
sbasS'_seed_config'
p1191
Nsb.