ccopy_reg
_reconstructor
p0
(copentuner.search.manipulator
ConfigurationManipulator
p1
c__builtin__
object
p2
Ntp3
Rp4
(dp5
S'search_driver'
p6
NsS'config_type'
p7
c__builtin__
dict
p8
sS'params'
p9
(lp10
g0
(copentuner.search.manipulator
EnumParameter
p11
g2
Ntp12
Rp13
(dp14
S'name'
p15
S'EstimateArgEscape'
p16
sS'parent'
p17
g4
sS'options'
p18
(lp19
S'on'
p20
aS'off'
p21
asbag0
(g11
g2
Ntp22
Rp23
(dp24
g15
S'UseCodeCacheFlushing'
p25
sg17
g4
sg18
(lp26
g20
ag21
asbag0
(g11
g2
Ntp27
Rp28
(dp29
g15
S'UseCompiler'
p30
sg17
g4
sg18
(lp31
g20
ag21
asbag0
(g11
g2
Ntp32
Rp33
(dp34
g15
S'UseCounterDecay'
p35
sg17
g4
sg18
(lp36
g20
ag21
asbag0
(g11
g2
Ntp37
Rp38
(dp39
g15
S'AlwaysCompileLoopMethods'
p40
sg17
g4
sg18
(lp41
g20
ag21
asbag0
(g11
g2
Ntp42
Rp43
(dp44
g15
S'DontCompileHugeMethods'
p45
sg17
g4
sg18
(lp46
g20
ag21
asbag0
(g11
g2
Ntp47
Rp48
(dp49
g15
S'TieredCompilation'
p50
sg17
g4
sg18
(lp51
g20
ag21
asbag0
(g11
g2
Ntp52
Rp53
(dp54
g15
S'PrintTieredEvents'
p55
sg17
g4
sg18
(lp56
g20
ag21
asbag0
(g11
g2
Ntp57
Rp58
(dp59
g15
S'TimeLinearScan'
p60
sg17
g4
sg18
(lp61
g20
ag21
asbag0
(g11
g2
Ntp62
Rp63
(dp64
g15
S'LIRFillDelaySlots'
p65
sg17
g4
sg18
(lp66
g20
ag21
asbag0
(g11
g2
Ntp67
Rp68
(dp69
g15
S'C1ProfileCalls'
p70
sg17
g4
sg18
(lp71
g20
ag21
asbag0
(g11
g2
Ntp72
Rp73
(dp74
g15
S'C1ProfileVirtualCalls'
p75
sg17
g4
sg18
(lp76
g20
ag21
asbag0
(g11
g2
Ntp77
Rp78
(dp79
g15
S'C1ProfileInlinedCalls'
p80
sg17
g4
sg18
(lp81
g20
ag21
asbag0
(g11
g2
Ntp82
Rp83
(dp84
g15
S'C1ProfileBranches'
p85
sg17
g4
sg18
(lp86
g20
ag21
asbag0
(g11
g2
Ntp87
Rp88
(dp89
g15
S'C1ProfileCheckcasts'
p90
sg17
g4
sg18
(lp91
g20
ag21
asbag0
(g11
g2
Ntp92
Rp93
(dp94
g15
S'C1OptimizeVirtualCallProfiling'
p95
sg17
g4
sg18
(lp96
g20
ag21
asbag0
(g11
g2
Ntp97
Rp98
(dp99
g15
S'C1UpdateMethodData'
p100
sg17
g4
sg18
(lp101
g20
ag21
asbag0
(g11
g2
Ntp102
Rp103
(dp104
g15
S'UseLoopPredicate'
p105
sg17
g4
sg18
(lp106
g20
ag21
asbag0
(g11
g2
Ntp107
Rp108
(dp109
g15
S'OptimizeFill'
p110
sg17
g4
sg18
(lp111
g20
ag21
asbag0
(g11
g2
Ntp112
Rp113
(dp114
g15
S'ReduceFieldZeroing'
p115
sg17
g4
sg18
(lp116
g20
ag21
asbag0
(g11
g2
Ntp117
Rp118
(dp119
g15
S'ReduceInitialCardMarks'
p120
sg17
g4
sg18
(lp121
g20
ag21
asbag0
(g11
g2
Ntp122
Rp123
(dp124
g15
S'ReduceBulkZeroing'
p125
sg17
g4
sg18
(lp126
g20
ag21
asbag0
(g11
g2
Ntp127
Rp128
(dp129
g15
S'UseFPUForSpilling'
p130
sg17
g4
sg18
(lp131
g20
ag21
asbag0
(g11
g2
Ntp132
Rp133
(dp134
g15
S'PartialPeelLoop'
p135
sg17
g4
sg18
(lp136
g20
ag21
asbag0
(g11
g2
Ntp137
Rp138
(dp139
g15
S'PartialPeelAtUnsignedTests'
p140
sg17
g4
sg18
(lp141
g20
ag21
asbag0
(g11
g2
Ntp142
Rp143
(dp144
g15
S'ReassociateInvariants'
p145
sg17
g4
sg18
(lp146
g20
ag21
asbag0
(g11
g2
Ntp147
Rp148
(dp149
g15
S'LoopUnswitching'
p150
sg17
g4
sg18
(lp151
g20
ag21
asbag0
(g11
g2
Ntp152
Rp153
(dp154
g15
S'UseSuperWord'
p155
sg17
g4
sg18
(lp156
g20
ag21
asbag0
(g11
g2
Ntp157
Rp158
(dp159
g15
S'BranchOnRegister'
p160
sg17
g4
sg18
(lp161
g20
ag21
asbag0
(g11
g2
Ntp162
Rp163
(dp164
g15
S'UseRDPCForConstantTableBase'
p165
sg17
g4
sg18
(lp166
g20
ag21
asbag0
(g11
g2
Ntp167
Rp168
(dp169
g15
S'UseOldInlining'
p170
sg17
g4
sg18
(lp171
g20
ag21
asbag0
(g11
g2
Ntp172
Rp173
(dp174
g15
S'UseBimorphicInlining'
p175
sg17
g4
sg18
(lp176
g20
ag21
asbag0
(g11
g2
Ntp177
Rp178
(dp179
g15
S'UseOnlyInlinedBimorphic'
p180
sg17
g4
sg18
(lp181
g20
ag21
asbag0
(g11
g2
Ntp182
Rp183
(dp184
g15
S'InsertMemBarAfterArraycopy'
p185
sg17
g4
sg18
(lp186
g20
ag21
asbag0
(g11
g2
Ntp187
Rp188
(dp189
g15
S'OptoScheduling'
p190
sg17
g4
sg18
(lp191
g20
ag21
asbag0
(g11
g2
Ntp192
Rp193
(dp194
g15
S'OptoBundling'
p195
sg17
g4
sg18
(lp196
g20
ag21
asbag0
(g11
g2
Ntp197
Rp198
(dp199
g15
S'UseJumpTables'
p200
sg17
g4
sg18
(lp201
g20
ag21
asbag0
(g11
g2
Ntp202
Rp203
(dp204
g15
S'UseDivMod'
p205
sg17
g4
sg18
(lp206
g20
ag21
asbag0
(g11
g2
Ntp207
Rp208
(dp209
g15
S'EliminateLocks'
p210
sg17
g4
sg18
(lp211
g20
ag21
asbag0
(g11
g2
Ntp212
Rp213
(dp214
g15
S'DoEscapeAnalysis'
p215
sg17
g4
sg18
(lp216
g20
ag21
asbag0
(g11
g2
Ntp217
Rp218
(dp219
g15
S'EliminateAllocations'
p220
sg17
g4
sg18
(lp221
g20
ag21
asbag0
(g11
g2
Ntp222
Rp223
(dp224
g15
S'UseOptoBiasInlining'
p225
sg17
g4
sg18
(lp226
g20
ag21
asbag0
(g11
g2
Ntp227
Rp228
(dp229
g15
S'OptimizeStringConcat'
p230
sg17
g4
sg18
(lp231
g20
ag21
asbag0
(g11
g2
Ntp232
Rp233
(dp234
g15
S'BlockLayoutByFrequency'
p235
sg17
g4
sg18
(lp236
g20
ag21
asbag0
(g11
g2
Ntp237
Rp238
(dp239
g15
S'BlockLayoutRotateLoops'
p240
sg17
g4
sg18
(lp241
g20
ag21
asbag0
(g11
g2
Ntp242
Rp243
(dp244
g15
S'TraceSafepointCleanupTime'
p245
sg17
g4
sg18
(lp246
g20
ag21
asbag0
(g11
g2
Ntp247
Rp248
(dp249
g15
S'Inline'
p250
sg17
g4
sg18
(lp251
g20
ag21
asbag0
(g11
g2
Ntp252
Rp253
(dp254
g15
S'ClipInlining'
p255
sg17
g4
sg18
(lp256
g20
ag21
asbag0
(g11
g2
Ntp257
Rp258
(dp259
g15
S'UseTypeProfile'
p260
sg17
g4
sg18
(lp261
g20
ag21
asbag0
(g11
g2
Ntp262
Rp263
(dp264
g15
S'UseCountLeadingZerosInstruction'
p265
sg17
g4
sg18
(lp266
g20
ag21
asbag0
(g11
g2
Ntp267
Rp268
(dp269
g15
S'UsePopCountInstruction'
p270
sg17
g4
sg18
(lp271
g20
ag21
asbag0
(g11
g2
Ntp272
Rp273
(dp274
g15
S'IgnoreUnrecognizedVMOptions'
p275
sg17
g4
sg18
(lp276
g20
ag21
asbag0
(g11
g2
Ntp277
Rp278
(dp279
g15
S'DisplayVMOutputToStderr'
p280
sg17
g4
sg18
(lp281
g20
ag21
asbag0
(g11
g2
Ntp282
Rp283
(dp284
g15
S'DisplayVMOutputToStdout'
p285
sg17
g4
sg18
(lp286
g20
ag21
asbag0
(g11
g2
Ntp287
Rp288
(dp289
g15
S'UseHeavyMonitors'
p290
sg17
g4
sg18
(lp291
g20
ag21
asbag0
(g11
g2
Ntp292
Rp293
(dp294
g15
S'RangeCheckElimination'
p295
sg17
g4
sg18
(lp296
g20
ag21
asbag0
(g11
g2
Ntp297
Rp298
(dp299
g15
S'SplitIfBlocks'
p300
sg17
g4
sg18
(lp301
g20
ag21
asbag0
(g11
g2
Ntp302
Rp303
(dp304
g15
S'AggressiveOpts'
p305
sg17
g4
sg18
(lp306
g20
ag21
asbag0
(g11
g2
Ntp307
Rp308
(dp309
g15
S'UseStringCache'
p310
sg17
g4
sg18
(lp311
g20
ag21
asbag0
(g11
g2
Ntp312
Rp313
(dp314
g15
S'UseInterpreter'
p315
sg17
g4
sg18
(lp316
g20
ag21
asbag0
(g11
g2
Ntp317
Rp318
(dp319
g15
S'UseLoopCounter'
p320
sg17
g4
sg18
(lp321
g20
ag21
asbag0
(g11
g2
Ntp322
Rp323
(dp324
g15
S'UseFastEmptyMethods'
p325
sg17
g4
sg18
(lp326
g20
ag21
asbag0
(g11
g2
Ntp327
Rp328
(dp329
g15
S'UseFastAccessorMethods'
p330
sg17
g4
sg18
(lp331
g20
ag21
asbag0
(g11
g2
Ntp332
Rp333
(dp334
g15
S'RewriteBytecodes'
p335
sg17
g4
sg18
(lp336
g20
ag21
asbag0
(g11
g2
Ntp337
Rp338
(dp339
g15
S'RewriteFrequentPairs'
p340
sg17
g4
sg18
(lp341
g20
ag21
asbag0
(g11
g2
Ntp342
Rp343
(dp344
g15
S'UseOnStackReplacement'
p345
sg17
g4
sg18
(lp346
g20
ag21
asbag0
(g11
g2
Ntp347
Rp348
(dp349
g15
S'PreferInterpreterNativeStubs'
p350
sg17
g4
sg18
(lp351
g20
ag21
asbag0
(g11
g2
Ntp352
Rp353
(dp354
g15
S'ProfileInterpreter'
p355
sg17
g4
sg18
(lp356
g20
ag21
asbag0
(g11
g2
Ntp357
Rp358
(dp359
g15
S'UseSerialGC'
p360
sg17
g4
sg18
(lp361
g20
ag21
asbag0
(g11
g2
Ntp362
Rp363
(dp364
g15
S'UseParallelOldGC'
p365
sg17
g4
sg18
(lp366
g20
ag21
asbag0
(g11
g2
Ntp367
Rp368
(dp369
g15
S'UseParallelGC'
p370
sg17
g4
sg18
(lp371
g20
ag21
asbag0
(g11
g2
Ntp372
Rp373
(dp374
g15
S'UseConcMarkSweepGC'
p375
sg17
g4
sg18
(lp376
g20
ag21
asbag0
(g11
g2
Ntp377
Rp378
(dp379
g15
S'UseParNewGC'
p380
sg17
g4
sg18
(lp381
g20
ag21
asbag0
(g11
g2
Ntp382
Rp383
(dp384
g15
S'UseG1GC'
p385
sg17
g4
sg18
(lp386
g20
ag21
asbag0
(g11
g2
Ntp387
Rp388
(dp389
g15
S'ResizePLAB'
p390
sg17
g4
sg18
(lp391
g20
ag21
asbag0
(g11
g2
Ntp392
Rp393
(dp394
g15
S'ResizeOldPLAB'
p395
sg17
g4
sg18
(lp396
g20
ag21
asbag0
(g11
g2
Ntp397
Rp398
(dp399
g15
S'AlwaysPreTouch'
p400
sg17
g4
sg18
(lp401
g20
ag21
asbag0
(g11
g2
Ntp402
Rp403
(dp404
g15
S'ParallelRefProcEnabled'
p405
sg17
g4
sg18
(lp406
g20
ag21
asbag0
(g11
g2
Ntp407
Rp408
(dp409
g15
S'ParallelRefProcBalancingEnabled'
p410
sg17
g4
sg18
(lp411
g20
ag21
asbag0
(g11
g2
Ntp412
Rp413
(dp414
g15
S'UseTLAB'
p415
sg17
g4
sg18
(lp416
g20
ag21
asbag0
(g11
g2
Ntp417
Rp418
(dp419
g15
S'ResizeTLAB'
p420
sg17
g4
sg18
(lp421
g20
ag21
asbag0
(g11
g2
Ntp422
Rp423
(dp424
g15
S'ZeroTLAB'
p425
sg17
g4
sg18
(lp426
g20
ag21
asbag0
(g11
g2
Ntp427
Rp428
(dp429
g15
S'FastTLABRefill'
p430
sg17
g4
sg18
(lp431
g20
ag21
asbag0
(g11
g2
Ntp432
Rp433
(dp434
g15
S'NeverActAsServerClassMachine'
p435
sg17
g4
sg18
(lp436
g20
ag21
asbag0
(g11
g2
Ntp437
Rp438
(dp439
g15
S'AlwaysActAsServerClassMachine'
p440
sg17
g4
sg18
(lp441
g20
ag21
asbag0
(g11
g2
Ntp442
Rp443
(dp444
g15
S'UseAutoGCSelectPolicy'
p445
sg17
g4
sg18
(lp446
g20
ag21
asbag0
(g11
g2
Ntp447
Rp448
(dp449
g15
S'UseAdaptiveSizePolicy'
p450
sg17
g4
sg18
(lp451
g20
ag21
asbag0
(g11
g2
Ntp452
Rp453
(dp454
g15
S'UsePSAdaptiveSurvivorSizePolicy'
p455
sg17
g4
sg18
(lp456
g20
ag21
asbag0
(g11
g2
Ntp457
Rp458
(dp459
g15
S'UseAdaptiveGenerationSizePolicyAtMinorCollection'
p460
sg17
g4
sg18
(lp461
g20
ag21
asbag0
(g11
g2
Ntp462
Rp463
(dp464
g15
S'UseAdaptiveGenerationSizePolicyAtMajorCollection'
p465
sg17
g4
sg18
(lp466
g20
ag21
asbag0
(g11
g2
Ntp467
Rp468
(dp469
g15
S'UseAdaptiveSizePolicyWithSystemGC'
p470
sg17
g4
sg18
(lp471
g20
ag21
asbag0
(g11
g2
Ntp472
Rp473
(dp474
g15
S'UseAdaptiveGCBoundary'
p475
sg17
g4
sg18
(lp476
g20
ag21
asbag0
(g11
g2
Ntp477
Rp478
(dp479
g15
S'UseAdaptiveSizePolicyFootprintGoal'
p480
sg17
g4
sg18
(lp481
g20
ag21
asbag0
(g11
g2
Ntp482
Rp483
(dp484
g15
S'UseAdaptiveSizeDecayMajorGCCost'
p485
sg17
g4
sg18
(lp486
g20
ag21
asbag0
(g11
g2
Ntp487
Rp488
(dp489
g15
S'UseGCOverheadLimit'
p490
sg17
g4
sg18
(lp491
g20
ag21
asbag0
(g11
g2
Ntp492
Rp493
(dp494
g15
S'PrintAdaptiveSizePolicy'
p495
sg17
g4
sg18
(lp496
g20
ag21
asbag0
(g11
g2
Ntp497
Rp498
(dp499
g15
S'DisableExplicitGC'
p500
sg17
g4
sg18
(lp501
g20
ag21
asbag0
(g11
g2
Ntp502
Rp503
(dp504
g15
S'CollectGen0First'
p505
sg17
g4
sg18
(lp506
g20
ag21
asbag0
(g11
g2
Ntp507
Rp508
(dp509
g15
S'BindGCTaskThreadsToCPUs'
p510
sg17
g4
sg18
(lp511
g20
ag21
asbag0
(g11
g2
Ntp512
Rp513
(dp514
g15
S'UseGCTaskAffinity'
p515
sg17
g4
sg18
(lp516
g20
ag21
asbag0
(g11
g2
Ntp517
Rp518
(dp519
g15
S'ParallelGCVerbose'
p520
sg17
g4
sg18
(lp521
g20
ag21
asbag0
(g11
g2
Ntp522
Rp523
(dp524
g15
S'AlwaysTenure'
p525
sg17
g4
sg18
(lp526
g20
ag21
asbag0
(g11
g2
Ntp527
Rp528
(dp529
g15
S'NeverTenure'
p530
sg17
g4
sg18
(lp531
g20
ag21
asbag0
(g11
g2
Ntp532
Rp533
(dp534
g15
S'ScavengeBeforeFullGC'
p535
sg17
g4
sg18
(lp536
g20
ag21
asbag0
(g11
g2
Ntp537
Rp538
(dp539
g15
S'UseMaximumCompactionOnSystemGC'
p540
sg17
g4
sg18
(lp541
g20
ag21
asbag0
(g11
g2
Ntp542
Rp543
(dp544
g15
S'UseCMSInitiatingOccupancyOnly'
p545
sg17
g4
sg18
(lp546
g20
ag21
asbag0
(g11
g2
Ntp547
Rp548
(dp549
g15
S'CMSClassUnloadingEnabled'
p550
sg17
g4
sg18
(lp551
g20
ag21
asbag0
(g11
g2
Ntp552
Rp553
(dp554
g15
g550
sg17
g4
sg18
(lp555
g20
ag21
asbag0
(g11
g2
Ntp556
Rp557
(dp558
g15
S'CMSIncrementalMode'
p559
sg17
g4
sg18
(lp560
g20
ag21
asbag0
(g11
g2
Ntp561
Rp562
(dp563
g15
g559
sg17
g4
sg18
(lp564
g20
ag21
asbag0
(g11
g2
Ntp565
Rp566
(dp567
g15
S'UseCMSBestFit'
p568
sg17
g4
sg18
(lp569
g20
ag21
asbag0
(g11
g2
Ntp570
Rp571
(dp572
g15
S'UseCMSCollectionPassing'
p573
sg17
g4
sg18
(lp574
g20
ag21
asbag0
(g11
g2
Ntp575
Rp576
(dp577
g15
S'CMSAbortSemantics'
p578
sg17
g4
sg18
(lp579
g20
ag21
asbag0
(g11
g2
Ntp580
Rp581
(dp582
g15
S'CMSCleanOnEnter'
p583
sg17
g4
sg18
(lp584
g20
ag21
asbag0
(g11
g2
Ntp585
Rp586
(dp587
g15
S'CMSCompactWhenClearAllSoftRefs'
p588
sg17
g4
sg18
(lp589
g20
ag21
asbag0
(g11
g2
Ntp590
Rp591
(dp592
g15
S'CMSDumpAtPromotionFailure'
p593
sg17
g4
sg18
(lp594
g20
ag21
asbag0
(g11
g2
Ntp595
Rp596
(dp597
g15
S'CMSExtrapolateSweep'
p598
sg17
g4
sg18
(lp599
g20
ag21
asbag0
(g11
g2
Ntp600
Rp601
(dp602
g15
S'CMSIncrementalPacing'
p603
sg17
g4
sg18
(lp604
g20
ag21
asbag0
(g11
g2
Ntp605
Rp606
(dp607
g15
S'CMSLoopWarn'
p608
sg17
g4
sg18
(lp609
g20
ag21
asbag0
(g11
g2
Ntp610
Rp611
(dp612
g15
S'CMSOldPLABResizeQuicker'
p613
sg17
g4
sg18
(lp614
g20
ag21
asbag0
(g11
g2
Ntp615
Rp616
(dp617
g15
S'CMSPermGenPrecleaningEnabled'
p618
sg17
g4
sg18
(lp619
g20
ag21
asbag0
(g11
g2
Ntp620
Rp621
(dp622
g15
S'CMSPrecleanRefLists1'
p623
sg17
g4
sg18
(lp624
g20
ag21
asbag0
(g11
g2
Ntp625
Rp626
(dp627
g15
S'CMSPrecleanRefLists2'
p628
sg17
g4
sg18
(lp629
g20
ag21
asbag0
(g11
g2
Ntp630
Rp631
(dp632
g15
S'CMSPrecleanSurvivors1'
p633
sg17
g4
sg18
(lp634
g20
ag21
asbag0
(g11
g2
Ntp635
Rp636
(dp637
g15
S'CMSPrecleanSurvivors2'
p638
sg17
g4
sg18
(lp639
g20
ag21
asbag0
(g11
g2
Ntp640
Rp641
(dp642
g15
S'CMSPrecleaningEnabled'
p643
sg17
g4
sg18
(lp644
g20
ag21
asbag0
(g11
g2
Ntp645
Rp646
(dp647
g15
S'CMSPrintChunksInDump'
p648
sg17
g4
sg18
(lp649
g20
ag21
asbag0
(g11
g2
Ntp650
Rp651
(dp652
g15
S'CMSPrintObjectsInDump'
p653
sg17
g4
sg18
(lp654
g20
ag21
asbag0
(g11
g2
Ntp655
Rp656
(dp657
g15
S'CMSReplenishIntermediate'
p658
sg17
g4
sg18
(lp659
g20
ag21
asbag0
(g11
g2
Ntp660
Rp661
(dp662
g15
S'CMSScavengeBeforeRemark'
p663
sg17
g4
sg18
(lp664
g20
ag21
asbag0
(g11
g2
Ntp665
Rp666
(dp667
g15
S'CMSSplitIndexedFreeListBlocks'
p668
sg17
g4
sg18
(lp669
g20
ag21
asbag0
(g11
g2
Ntp670
Rp671
(dp672
g15
S'CMSYield'
p673
sg17
g4
sg18
(lp674
g20
ag21
asbag0
(g11
g2
Ntp675
Rp676
(dp677
g15
S'ExplicitGCInvokesConcurrent'
p678
sg17
g4
sg18
(lp679
g20
ag21
asbag0
(g11
g2
Ntp680
Rp681
(dp682
g15
S'ExplicitGCInvokesConcurrentAndUnloadsClasses'
p683
sg17
g4
sg18
(lp684
g20
ag21
asbag0
(g11
g2
Ntp685
Rp686
(dp687
g15
S'ParGCUseLocalOverflow'
p688
sg17
g4
sg18
(lp689
g20
ag21
asbag0
(g11
g2
Ntp690
Rp691
(dp692
g15
S'ParGCTrimOverflow'
p693
sg17
g4
sg18
(lp694
g20
ag21
asbag0
(g11
g2
Ntp695
Rp696
(dp697
g15
S'CMSParallelRemarkEnabled'
p698
sg17
g4
sg18
(lp699
g20
ag21
asbag0
(g11
g2
Ntp700
Rp701
(dp702
g15
S'CMSParallelSurvivorRemarkEnabled'
p703
sg17
g4
sg18
(lp704
g20
ag21
asbag0
(g11
g2
Ntp705
Rp706
(dp707
g15
S'CMSPLABRecordAlways'
p708
sg17
g4
sg18
(lp709
g20
ag21
asbag0
(g11
g2
Ntp710
Rp711
(dp712
g15
S'CMSConcurrentMTEnabled'
p713
sg17
g4
sg18
(lp714
g20
ag21
asbag0
(g11
g2
Ntp715
Rp716
(dp717
g15
S'G1UseAdaptiveConcRefinement'
p718
sg17
g4
sg18
(lp719
g20
ag21
asbag0
(g11
g2
Ntp720
Rp721
(dp722
g15
S'UseInterpreter'
p723
sg17
g4
sg18
(lp724
g20
ag21
asbag0
(g11
g2
Ntp725
Rp726
(dp727
g15
S'UseLoopCounter'
p728
sg17
g4
sg18
(lp729
g20
ag21
asbag0
(g11
g2
Ntp730
Rp731
(dp732
g15
S'UseFastEmptyMethods'
p733
sg17
g4
sg18
(lp734
g20
ag21
asbag0
(g11
g2
Ntp735
Rp736
(dp737
g15
S'UseFastAccessorMethods'
p738
sg17
g4
sg18
(lp739
g20
ag21
asbag0
(g11
g2
Ntp740
Rp741
(dp742
g15
S'RewriteBytecodes'
p743
sg17
g4
sg18
(lp744
g20
ag21
asbag0
(g11
g2
Ntp745
Rp746
(dp747
g15
S'RewriteFrequentPairs'
p748
sg17
g4
sg18
(lp749
g20
ag21
asbag0
(g11
g2
Ntp750
Rp751
(dp752
g15
S'UseOnStackReplacement'
p753
sg17
g4
sg18
(lp754
g20
ag21
asbag0
(g11
g2
Ntp755
Rp756
(dp757
g15
S'PreferInterpreterNativeStubs'
p758
sg17
g4
sg18
(lp759
g20
ag21
asbag0
(g11
g2
Ntp760
Rp761
(dp762
g15
S'ProfileInterpreter'
p763
sg17
g4
sg18
(lp764
g20
ag21
asbag0
(g11
g2
Ntp765
Rp766
(dp767
g15
S'UseSharedSpaces'
p768
sg17
g4
sg18
(lp769
g20
ag21
asbag0
(g11
g2
Ntp770
Rp771
(dp772
g15
S'RequireSharedSpaces'
p773
sg17
g4
sg18
(lp774
g20
ag21
asbag0
(g11
g2
Ntp775
Rp776
(dp777
g15
S'DumpSharedSpaces'
p778
sg17
g4
sg18
(lp779
g20
ag21
asbag0
(g11
g2
Ntp780
Rp781
(dp782
g15
S'PrintSharedSpaces'
p783
sg17
g4
sg18
(lp784
g20
ag21
asbag0
(g11
g2
Ntp785
Rp786
(dp787
g15
S'ExtendedDTraceProbes'
p788
sg17
g4
sg18
(lp789
g20
ag21
asbag0
(g11
g2
Ntp790
Rp791
(dp792
g15
S'DTraceMethodProbes'
p793
sg17
g4
sg18
(lp794
g20
ag21
asbag0
(g11
g2
Ntp795
Rp796
(dp797
g15
S'DTraceAllocProbes'
p798
sg17
g4
sg18
(lp799
g20
ag21
asbag0
(g11
g2
Ntp800
Rp801
(dp802
g15
S'DTraceMonitorProbes'
p803
sg17
g4
sg18
(lp804
g20
ag21
asbag0
(g11
g2
Ntp805
Rp806
(dp807
g15
S'RelaxAccessControlCheck'
p808
sg17
g4
sg18
(lp809
g20
ag21
asbag0
(g11
g2
Ntp810
Rp811
(dp812
g15
S'UseVMInterruptibleIO'
p813
sg17
g4
sg18
(lp814
g20
ag21
asbag0
(g11
g2
Ntp815
Rp816
(dp817
g15
S'ThreadPriorityVerbose'
p818
sg17
g4
sg18
(lp819
g20
ag21
asbag0
(g11
g2
Ntp820
Rp821
(dp822
g15
S'CompilerThreadHintNoPreempt'
p823
sg17
g4
sg18
(lp824
g20
ag21
asbag0
(g11
g2
Ntp825
Rp826
(dp827
g15
S'VMThreadHintNoPreempt'
p828
sg17
g4
sg18
(lp829
g20
ag21
asbag0
(g11
g2
Ntp830
Rp831
(dp832
g15
S'UseThreadPriorities'
p833
sg17
g4
sg18
(lp834
g20
ag21
asbag0
(g11
g2
Ntp835
Rp836
(dp837
g15
S'JavaMonitorsInStackTrace'
p838
sg17
g4
sg18
(lp839
g20
ag21
asbag0
(g11
g2
Ntp840
Rp841
(dp842
g15
S'UseNUMA'
p843
sg17
g4
sg18
(lp844
g20
ag21
asbag0
(g11
g2
Ntp845
Rp846
(dp847
g15
S'ForceNUMA'
p848
sg17
g4
sg18
(lp849
g20
ag21
asbag0
(g11
g2
Ntp850
Rp851
(dp852
g15
S'UseAdaptiveNUMAChunkSizing'
p853
sg17
g4
sg18
(lp854
g20
ag21
asbag0
(g11
g2
Ntp855
Rp856
(dp857
g15
S'NUMAStats'
p858
sg17
g4
sg18
(lp859
g20
ag21
asbag0
(g11
g2
Ntp860
Rp861
(dp862
g15
S'ForceTimeHighResolution'
p863
sg17
g4
sg18
(lp864
g20
ag21
asbag0
(g11
g2
Ntp865
Rp866
(dp867
g15
S'PrintVMQWaitTime'
p868
sg17
g4
sg18
(lp869
g20
ag21
asbag0
(g11
g2
Ntp870
Rp871
(dp872
g15
S'MethodFlushing'
p873
sg17
g4
sg18
(lp874
g20
ag21
asbag0
(g11
g2
Ntp875
Rp876
(dp877
g15
S'PrintJNIResolving'
p878
sg17
g4
sg18
(lp879
g20
ag21
asbag0
(g11
g2
Ntp880
Rp881
(dp882
g15
S'UseInlineCaches'
p883
sg17
g4
sg18
(lp884
g20
ag21
asbag0
(g11
g2
Ntp885
Rp886
(dp887
g15
S'UseSSE42Intrinsics'
p888
sg17
g4
sg18
(lp889
g20
ag21
asbag0
(g11
g2
Ntp890
Rp891
(dp892
g15
S'UseCondCardMark'
p893
sg17
g4
sg18
(lp894
g20
ag21
asbag0
(g11
g2
Ntp895
Rp896
(dp897
g15
S'DeoptimizeRandom'
p898
sg17
g4
sg18
(lp899
g20
ag21
asbag0
(g11
g2
Ntp900
Rp901
(dp902
g15
S'UnlinkSymbolsALot'
p903
sg17
g4
sg18
(lp904
g20
ag21
asbag0
(g11
g2
Ntp905
Rp906
(dp907
g15
S'UseCompilerSafepoints'
p908
sg17
g4
sg18
(lp909
g20
ag21
asbag0
(g11
g2
Ntp910
Rp911
(dp912
g15
S'UseSplitVerifier'
p913
sg17
g4
sg18
(lp914
g20
ag21
asbag0
(g11
g2
Ntp915
Rp916
(dp917
g15
S'FailOverToOldVerifier'
p918
sg17
g4
sg18
(lp919
g20
ag21
asbag0
(g11
g2
Ntp920
Rp921
(dp922
g15
S'SafepointTimeout'
p923
sg17
g4
sg18
(lp924
g20
ag21
asbag0
(g11
g2
Ntp925
Rp926
(dp927
g15
S'UseLargePages'
p928
sg17
g4
sg18
(lp929
g20
ag21
asbag0
(g11
g2
Ntp930
Rp931
(dp932
g15
S'UseLargePagesIndividualAllocation'
p933
sg17
g4
sg18
(lp934
g20
ag21
asbag0
(g11
g2
Ntp935
Rp936
(dp937
g15
S'NeedsDeoptSuspend'
p938
sg17
g4
sg18
(lp939
g20
ag21
asbag0
(g11
g2
Ntp940
Rp941
(dp942
g15
S'BackgroundCompilation'
p943
sg17
g4
sg18
(lp944
g20
ag21
asbag0
(copentuner.search.manipulator
IntegerParameter
p945
g2
Ntp946
Rp947
(dp948
S'max_value'
p949
I0
sS'min_value'
p950
I0
sS'value_type'
p951
c__builtin__
int
p952
sg15
S'BCEATraceLevel'
p953
sg17
g4
sbag0
(g945
g2
Ntp954
Rp955
(dp956
g949
I7
sg950
I2
sg951
g952
sg15
S'MaxBCEAEstimateLevel'
p957
sg17
g4
sbag0
(g945
g2
Ntp958
Rp959
(dp960
g949
I225
sg950
I75
sg951
g952
sg15
S'MaxBCEAEstimateSize'
p961
sg17
g4
sbag0
(g945
g2
Ntp962
Rp963
(dp964
g949
I1
sg950
I0
sg951
g952
sg15
S'AllocatePrefetchStyle'
p965
sg17
g4
sbag0
(g945
g2
Ntp966
Rp967
(dp968
g949
I288
sg950
I96
sg951
g952
sg15
S'AllocatePrefetchDistance'
p969
sg17
g4
sbag0
(g945
g2
Ntp970
Rp971
(dp972
g949
I6
sg950
I2
sg951
g952
sg15
S'AllocatePrefetchLines'
p973
sg17
g4
sbag0
(g945
g2
Ntp974
Rp975
(dp976
g949
I96
sg950
I32
sg951
g952
sg15
S'AllocatePrefetchStepSize'
p977
sg17
g4
sbag0
(g945
g2
Ntp978
Rp979
(dp980
g949
I0
sg950
I0
sg951
g952
sg15
S'AllocatePrefetchInstr'
p981
sg17
g4
sbag0
(g945
g2
Ntp982
Rp983
(dp984
g949
I0
sg950
I0
sg951
g952
sg15
S'ReadPrefetchInstr'
p985
sg17
g4
sbag0
(g945
g2
Ntp986
Rp987
(dp988
g949
I0
sg950
I0
sg951
g952
sg15
S'SelfDestructTimer'
p989
sg17
g4
sbag0
(g945
g2
Ntp990
Rp991
(dp992
g949
I1536
sg950
I512
sg951
g952
sg15
S'MaxJavaStackTraceDepth'
p993
sg17
g4
sbag0
(g945
g2
Ntp994
Rp995
(dp996
g949
I15000
sg950
I5000
sg951
g952
sg15
S'SafepointTimeoutDelay'
p997
sg17
g4
sbag0
(g945
g2
Ntp998
Rp999
(dp1000
g949
I24
sg950
I8
sg951
g952
sg15
S'NmethodSweepFraction'
p1001
sg17
g4
sbag0
(g945
g2
Ntp1002
Rp1003
(dp1004
g949
I7
sg950
I2
sg951
g952
sg15
S'NmethodSweepCheckInterval'
p1005
sg17
g4
sbag0
(g945
g2
Ntp1006
Rp1007
(dp1008
g949
I13
sg950
I4
sg951
g952
sg15
S'MaxInlineLevel'
p1009
sg17
g4
sbag0
(g945
g2
Ntp1010
Rp1011
(dp1012
g949
I1
sg950
I0
sg951
g952
sg15
S'MaxRecursiveInlineLevel'
p1013
sg17
g4
sbag0
(g945
g2
Ntp1014
Rp1015
(dp1016
g949
I52
sg950
I17
sg951
g952
sg15
S'MaxInlineSize'
p1017
sg17
g4
sbag0
(g945
g2
Ntp1018
Rp1019
(dp1020
g949
I9
sg950
I3
sg951
g952
sg15
S'MaxTrivialSize'
p1021
sg17
g4
sbag0
(g945
g2
Ntp1022
Rp1023
(dp1024
g949
I375
sg950
I125
sg951
g952
sg15
S'MinInliningThreshold'
p1025
sg17
g4
sbag0
(g945
g2
Ntp1026
Rp1027
(dp1028
g949
I150
sg950
I50
sg951
g952
sg15
S'ProfileIntervalsTicks'
p1029
sg17
g4
sbag0
(g945
g2
Ntp1030
Rp1031
(dp1032
g949
I3
sg950
I1
sg951
g952
sg15
S'TypeProfileWidth'
p1033
sg17
g4
sbag0
(g945
g2
Ntp1034
Rp1035
(dp1036
g949
I600
sg950
I200
sg951
g952
sg15
S'PerMethodRecompilationCutoff'
p1037
sg17
g4
sbag0
(g945
g2
Ntp1038
Rp1039
(dp1040
g949
I300
sg950
I100
sg951
g952
sg15
S'PerBytecodeRecompilationCutoff'
p1041
sg17
g4
sbag0
(g945
g2
Ntp1042
Rp1043
(dp1044
g949
I150
sg950
I50
sg951
g952
sg15
S'PerMethodTrapLimit'
p1045
sg17
g4
sbag0
(g945
g2
Ntp1046
Rp1047
(dp1048
g949
I6
sg950
I2
sg951
g952
sg15
S'PerBytecodeTrapLimit'
p1049
sg17
g4
sbag0
(g945
g2
Ntp1050
Rp1051
(dp1052
g949
I4
sg950
I1
sg951
g952
sg15
S'AliasLevel'
p1053
sg17
g4
sbag0
(g945
g2
Ntp1054
Rp1055
(dp1056
g949
I1500
sg950
I500
sg951
g952
sg15
S'InlineSmallCode'
p1057
sg17
g4
sbag0
(g945
g2
Ntp1058
Rp1059
(dp1060
g949
I487
sg950
I162
sg951
g952
sg15
S'FreqInlineSize'
p1061
sg17
g4
sbag0
(g945
g2
Ntp1062
Rp1063
(dp1064
g949
I15
sg950
I5
sg951
g952
sg15
S'PreInflateSpin'
p1065
sg17
g4
sbag0
(g945
g2
Ntp1066
Rp1067
(dp1068
g949
I768000
sg950
I256000
sg951
g952
sg15
S'CodeCacheMinimumFreeSpace'
p1069
sg17
g4
sbag0
(g945
g2
Ntp1070
Rp1071
(dp1072
g949
I45
sg950
I15
sg951
g952
sg15
S'MinCodeCacheFlushingInterval'
p1073
sg17
g4
sbag0
(g945
g2
Ntp1074
Rp1075
(dp1076
g949
I2304000
sg950
I768000
sg951
g952
sg15
S'CodeCacheFlushingMinimumFreeSpace'
p1077
sg17
g4
sbag0
(g945
g2
Ntp1078
Rp1079
(dp1080
g949
I24
sg950
I8
sg951
g952
sg15
S'OptoLoopAlignment'
p1081
sg17
g4
sbag0
(g945
g2
Ntp1082
Rp1083
(dp1084
g949
I3833856
sg950
I1277952
sg951
g952
sg15
S'InitialCodeCacheSize'
p1085
sg17
g4
sbag0
(g945
g2
Ntp1086
Rp1087
(dp1088
g949
I75497472
sg950
I25165824
sg951
g952
sg15
S'ReservedCodeCacheSize'
p1089
sg17
g4
sbag0
(g945
g2
Ntp1090
Rp1091
(dp1092
g949
I98304
sg950
I32768
sg951
g952
sg15
S'CodeCacheExpansionSize'
p1093
sg17
g4
sbag0
(g945
g2
Ntp1094
Rp1095
(dp1096
g949
I15000
sg950
I5000
sg951
g952
sg15
S'CompileThreshold'
p1097
sg17
g4
sbag0
(g945
g2
Ntp1098
Rp1099
(dp1100
g949
I150000
sg950
I50000
sg951
g952
sg15
S'BackEdgeThreshold'
p1101
sg17
g4
sbag0
(g945
g2
Ntp1102
Rp1103
(dp1104
g949
I210
sg950
I70
sg951
g952
sg15
S'OnStackReplacePercentage'
p1105
sg17
g4
sbag0
(g945
g2
Ntp1106
Rp1107
(dp1108
g949
I49
sg950
I16
sg951
g952
sg15
S'InterpreterProfilePercentage'
p1109
sg17
g4
sbag0
(g945
g2
Ntp1110
Rp1111
(dp1112
g949
I10
sg950
I3
sg951
g952
sg15
S'Tier0InvokeNotifyFreqLog'
p1113
sg17
g4
sbag0
(g945
g2
Ntp1114
Rp1115
(dp1116
g949
I16
sg950
I5
sg951
g952
sg15
S'Tier2InvokeNotifyFreqLog'
p1117
sg17
g4
sbag0
(g945
g2
Ntp1118
Rp1119
(dp1120
g949
I15
sg950
I5
sg951
g952
sg15
S'Tier3InvokeNotifyFreqLog'
p1121
sg17
g4
sbag0
(g945
g2
Ntp1122
Rp1123
(dp1124
g949
I15
sg950
I5
sg951
g952
sg15
S'Tier0BackedgeNotifyFreqLog'
p1125
sg17
g4
sbag0
(g945
g2
Ntp1126
Rp1127
(dp1128
g949
I21
sg950
I7
sg951
g952
sg15
S'Tier2BackedgeNotifyFreqLog'
p1129
sg17
g4
sbag0
(g945
g2
Ntp1130
Rp1131
(dp1132
g949
I19
sg950
I6
sg951
g952
sg15
S'Tier3BackedgeNotifyFreqLog'
p1133
sg17
g4
sbag0
(g945
g2
Ntp1134
Rp1135
(dp1136
g949
I0
sg950
I0
sg951
g952
sg15
S'Tier2CompileThreshold'
p1137
sg17
g4
sbag0
(g945
g2
Ntp1138
Rp1139
(dp1140
g949
I0
sg950
I0
sg951
g952
sg15
S'Tier2BackEdgeThreshold'
p1141
sg17
g4
sbag0
(g945
g2
Ntp1142
Rp1143
(dp1144
g949
I300
sg950
I100
sg951
g952
sg15
S'Tier3InvocationThreshold'
p1145
sg17
g4
sbag0
(g945
g2
Ntp1146
Rp1147
(dp1148
g949
I150
sg950
I50
sg951
g952
sg15
S'Tier3MinInvocationThreshold'
p1149
sg17
g4
sbag0
(g945
g2
Ntp1150
Rp1151
(dp1152
g949
I3000
sg950
I1000
sg951
g952
sg15
S'Tier3CompileThreshold'
p1153
sg17
g4
sbag0
(g945
g2
Ntp1154
Rp1155
(dp1156
g949
I90000
sg950
I30000
sg951
g952
sg15
S'Tier3BackEdgeThreshold'
p1157
sg17
g4
sbag0
(g945
g2
Ntp1158
Rp1159
(dp1160
g949
I7500
sg950
I2500
sg951
g952
sg15
S'Tier4InvocationThreshold'
p1161
sg17
g4
sbag0
(g945
g2
Ntp1162
Rp1163
(dp1164
g949
I900
sg950
I300
sg951
g952
sg15
S'Tier4MinInvocationThreshold'
p1165
sg17
g4
sbag0
(g945
g2
Ntp1166
Rp1167
(dp1168
g949
I22500
sg950
I7500
sg951
g952
sg15
S'Tier4CompileThreshold'
p1169
sg17
g4
sbag0
(g945
g2
Ntp1170
Rp1171
(dp1172
g949
I60000
sg950
I20000
sg951
g952
sg15
S'Tier4BackEdgeThreshold'
p1173
sg17
g4
sbag0
(g945
g2
Ntp1174
Rp1175
(dp1176
g949
I7
sg950
I2
sg951
g952
sg15
S'Tier3DelayOn'
p1177
sg17
g4
sbag0
(g945
g2
Ntp1178
Rp1179
(dp1180
g949
I3
sg950
I1
sg951
g952
sg15
S'Tier3DelayOff'
p1181
sg17
g4
sbag0
(g945
g2
Ntp1182
Rp1183
(dp1184
g949
I7
sg950
I2
sg951
g952
sg15
S'Tier3LoadFeedback'
p1185
sg17
g4
sbag0
(g945
g2
Ntp1186
Rp1187
(dp1188
g949
I4
sg950
I1
sg951
g952
sg15
S'Tier4LoadFeedback'
p1189
sg17
g4
sbag0
(g945
g2
Ntp1190
Rp1191
(dp1192
g949
I75
sg950
I25
sg951
g952
sg15
S'TieredCompileTaskTimeout'
p1193
sg17
g4
sbag0
(g945
g2
Ntp1194
Rp1195
(dp1196
g949
I6
sg950
I2
sg951
g952
sg15
S'TieredStopAtLevel'
p1197
sg17
g4
sbag0
(g945
g2
Ntp1198
Rp1199
(dp1200
g949
I300
sg950
I100
sg951
g952
sg15
S'Tier0ProfilingStartPercentage'
p1201
sg17
g4
sbag0
(g945
g2
Ntp1202
Rp1203
(dp1204
g949
I1
sg950
I0
sg951
g952
sg15
S'TieredRateUpdateMinTime'
p1205
sg17
g4
sbag0
(g945
g2
Ntp1206
Rp1207
(dp1208
g949
I37
sg950
I12
sg951
g952
sg15
S'TieredRateUpdateMaxTime'
p1209
sg17
g4
sbag0
(g945
g2
Ntp1210
Rp1211
(dp1212
g949
I16
sg950
I5
sg951
g952
sg15
S'ValueMapInitialSize'
p1213
sg17
g4
sbag0
(g945
g2
Ntp1214
Rp1215
(dp1216
g949
I12
sg950
I4
sg951
g952
sg15
S'ValueMapMaxLoopSize'
p1217
sg17
g4
sbag0
(g945
g2
Ntp1218
Rp1219
(dp1220
g949
I0
sg950
I0
sg951
g952
sg15
S'CompilationRepeat'
p1221
sg17
g4
sbag0
(g945
g2
Ntp1222
Rp1223
(dp1224
g949
I384
sg950
I128
sg951
g952
sg15
S'SafepointPollOffset'
p1225
sg17
g4
sbag0
(g945
g2
Ntp1226
Rp1227
(dp1228
g949
I16
sg950
I5
sg951
g952
sg15
S'MaxLoopPad'
p1229
sg17
g4
sbag0
(g945
g2
Ntp1230
Rp1231
(dp1232
g949
I6
sg950
I2
sg951
g952
sg15
S'NumberOfLoopInstrToAlign'
p1233
sg17
g4
sbag0
(g945
g2
Ntp1234
Rp1235
(dp1236
g949
I6
sg950
I2
sg951
g952
sg15
S'LoopUnrollMin'
p1237
sg17
g4
sbag0
(g945
g2
Ntp1238
Rp1239
(dp1240
g949
I9
sg950
I3
sg951
g952
sg15
S'MultiArrayExpandLimit'
p1241
sg17
g4
sbag0
(g945
g2
Ntp1242
Rp1243
(dp1244
g949
I75
sg950
I25
sg951
g952
sg15
S'TrackedInitializationLimit'
p1245
sg17
g4
sbag0
(g945
g2
Ntp1246
Rp1247
(dp1248
g949
I0
sg950
I0
sg951
g952
sg15
S'PartialPeelNewPhiDelta'
p1249
sg17
g4
sbag0
(g945
g2
Ntp1250
Rp1251
(dp1252
g949
I24
sg950
I8
sg951
g952
sg15
S'InteriorEntryAlignment'
p1253
sg17
g4
sbag0
(g945
g2
Ntp1254
Rp1255
(dp1256
g949
I90
sg950
I30
sg951
g952
sg15
S'LoopUnrollLimit'
p1257
sg17
g4
sbag0
(g945
g2
Ntp1258
Rp1259
(dp1260
g949
I4
sg950
I1
sg951
g952
sg15
S'ConditionalMoveLimit'
p1261
sg17
g4
sbag0
(g945
g2
Ntp1262
Rp1263
(dp1264
g949
I112500
sg950
I37500
sg951
g952
sg15
S'MaxNodeLimit'
p1265
sg17
g4
sbag0
(g945
g2
Ntp1266
Rp1267
(dp1268
g949
I1500
sg950
I500
sg951
g952
sg15
S'NodeLimitFudgeFactor'
p1269
sg17
g4
sbag0
(g945
g2
Ntp1270
Rp1271
(dp1272
g949
I27
sg950
I9
sg951
g952
sg15
S'MinJumpTableSize'
p1273
sg17
g4
sbag0
(g945
g2
Ntp1274
Rp1275
(dp1276
g949
I97500
sg950
I32500
sg951
g952
sg15
S'MaxJumpTableSize'
p1277
sg17
g4
sbag0
(g945
g2
Ntp1278
Rp1279
(dp1280
g949
I7
sg950
I2
sg951
g952
sg15
S'MaxJumpTableSparseness'
p1281
sg17
g4
sbag0
(g945
g2
Ntp1282
Rp1283
(dp1284
g949
I192
sg950
I64
sg951
g952
sg15
S'AutoBoxCacheMax'
p1285
sg17
g4
sbag0
(g945
g2
Ntp1286
Rp1287
(dp1288
g949
I96
sg950
I32
sg951
g952
sg15
S'EliminateAllocationArraySizeLimit'
p1289
sg17
g4
sbag0
(g945
g2
Ntp1290
Rp1291
(dp1292
g949
I1500
sg950
I500
sg951
g952
sg15
S'ValueSearchLimit'
p1293
sg17
g4
sbag0
(g945
g2
Ntp1294
Rp1295
(dp1296
g949
I1650
sg950
I550
sg951
g952
sg15
S'MaxLabelRootDepth'
p1297
sg17
g4
sbag0
(g945
g2
Ntp1298
Rp1299
(dp1300
g949
I30
sg950
I10
sg951
g952
sg15
S'BlockLayoutMinDiamondPercentage'
p1301
sg17
g4
sbag0
(g945
g2
Ntp1302
Rp1303
(dp1304
g949
I64
sg950
I21
sg951
g952
sg15
S'LoopOptsCount'
p1305
sg17
g4
sbag0
(g945
g2
Ntp1306
Rp1307
(dp1308
g949
I3
sg950
I1
sg951
g952
sg15
S'CICompilerCount'
p1309
sg17
g4
sbag0
(g945
g2
Ntp1310
Rp1311
(dp1312
g949
I0
sg950
I0
sg951
g952
sg15
S'CompilationPolicyChoice'
p1313
sg17
g4
sbag0
(g945
g2
Ntp1314
Rp1315
(dp1316
g949
I135
sg950
I45
sg951
g952
sg15
S'TypeProfileMajorReceiverPercent'
p1317
sg17
g4
sbag0
(g945
g2
Ntp1318
Rp1319
(dp1320
g949
I30
sg950
I10
sg951
g952
sg15
S'ProfileMaturityPercentage'
p1321
sg17
g4
sbag0
(g945
g2
Ntp1322
Rp1323
(dp1324
g949
I300
sg950
I100
sg951
g952
sg15
S'StarvationMonitorInterval'
p1325
sg17
g4
sbag0
(g945
g2
Ntp1326
Rp1327
(dp1328
g949
I0
sg950
I0
sg951
g952
sg15
S'SelfDestructTimer'
p1329
sg17
g4
sbag0
(g945
g2
Ntp1330
Rp1331
(dp1332
g949
I1536
sg950
I512
sg951
g952
sg15
S'MaxJavaStackTraceDepth'
p1333
sg17
g4
sbag0
(g945
g2
Ntp1334
Rp1335
(dp1336
g949
I15000
sg950
I5000
sg951
g952
sg15
S'SafepointTimeoutDelay'
p1337
sg17
g4
sbag0
(g945
g2
Ntp1338
Rp1339
(dp1340
g949
I24
sg950
I8
sg951
g952
sg15
S'NmethodSweepFraction'
p1341
sg17
g4
sbag0
(g945
g2
Ntp1342
Rp1343
(dp1344
g949
I7
sg950
I2
sg951
g952
sg15
S'NmethodSweepCheckInterval'
p1345
sg17
g4
sbag0
(g945
g2
Ntp1346
Rp1347
(dp1348
g949
I13
sg950
I4
sg951
g952
sg15
S'MaxInlineLevel'
p1349
sg17
g4
sbag0
(g945
g2
Ntp1350
Rp1351
(dp1352
g949
I1
sg950
I0
sg951
g952
sg15
S'MaxRecursiveInlineLevel'
p1353
sg17
g4
sbag0
(g945
g2
Ntp1354
Rp1355
(dp1356
g949
I52
sg950
I17
sg951
g952
sg15
S'MaxInlineSize'
p1357
sg17
g4
sbag0
(g945
g2
Ntp1358
Rp1359
(dp1360
g949
I9
sg950
I3
sg951
g952
sg15
S'MaxTrivialSize'
p1361
sg17
g4
sbag0
(g945
g2
Ntp1362
Rp1363
(dp1364
g949
I375
sg950
I125
sg951
g952
sg15
S'MinInliningThreshold'
p1365
sg17
g4
sbag0
(g945
g2
Ntp1366
Rp1367
(dp1368
g949
I150
sg950
I50
sg951
g952
sg15
S'ProfileIntervalsTicks'
p1369
sg17
g4
sbag0
(g945
g2
Ntp1370
Rp1371
(dp1372
g949
I3
sg950
I1
sg951
g952
sg15
S'TypeProfileWidth'
p1373
sg17
g4
sbag0
(g945
g2
Ntp1374
Rp1375
(dp1376
g949
I600
sg950
I200
sg951
g952
sg15
S'PerMethodRecompilationCutoff'
p1377
sg17
g4
sbag0
(g945
g2
Ntp1378
Rp1379
(dp1380
g949
I300
sg950
I100
sg951
g952
sg15
S'PerBytecodeRecompilationCutoff'
p1381
sg17
g4
sbag0
(g945
g2
Ntp1382
Rp1383
(dp1384
g949
I150
sg950
I50
sg951
g952
sg15
S'PerMethodTrapLimit'
p1385
sg17
g4
sbag0
(g945
g2
Ntp1386
Rp1387
(dp1388
g949
I6
sg950
I2
sg951
g952
sg15
S'PerBytecodeTrapLimit'
p1389
sg17
g4
sbag0
(g945
g2
Ntp1390
Rp1391
(dp1392
g949
I4
sg950
I1
sg951
g952
sg15
S'AliasLevel'
p1393
sg17
g4
sbag0
(g945
g2
Ntp1394
Rp1395
(dp1396
g949
I1500
sg950
I500
sg951
g952
sg15
S'InlineSmallCode'
p1397
sg17
g4
sbag0
(g945
g2
Ntp1398
Rp1399
(dp1400
g949
I487
sg950
I162
sg951
g952
sg15
S'FreqInlineSize'
p1401
sg17
g4
sbag0
(g945
g2
Ntp1402
Rp1403
(dp1404
g949
I15
sg950
I5
sg951
g952
sg15
S'PreInflateSpin'
p1405
sg17
g4
sbag0
(g945
g2
Ntp1406
Rp1407
(dp1408
g949
I6144
sg950
I2048
sg951
g952
sg15
S'YoungPLABSize'
p1409
sg17
g4
sbag0
(g945
g2
Ntp1410
Rp1411
(dp1412
g949
I1536
sg950
I512
sg951
g952
sg15
S'OldPLABSize'
p1413
sg17
g4
sbag0
(g945
g2
Ntp1414
Rp1415
(dp1416
g949
I300
sg950
I100
sg951
g952
sg15
S'GCTaskTimeStampEntries'
p1417
sg17
g4
sbag0
(g945
g2
Ntp1418
Rp1419
(dp1420
g949
I15
sg950
I5
sg951
g952
sg15
S'TargetPLABWastePct'
p1421
sg17
g4
sbag0
(g945
g2
Ntp1422
Rp1423
(dp1424
g949
I112
sg950
I37
sg951
g952
sg15
S'PLABWeight'
p1425
sg17
g4
sbag0
(g945
g2
Ntp1426
Rp1427
(dp1428
g949
I75
sg950
I25
sg951
g952
sg15
S'OldPLABWeight'
p1429
sg17
g4
sbag0
(g945
g2
Ntp1430
Rp1431
(dp1432
g949
I6291456
sg950
I2097152
sg951
g952
sg15
S'MarkStackSize'
p1433
sg17
g4
sbag0
(g945
g2
Ntp1434
Rp1435
(dp1436
g949
I805306368
sg950
I268435456
sg951
g952
sg15
S'MarkStackSizeMax'
p1437
sg17
g4
sbag0
(g945
g2
Ntp1438
Rp1439
(dp1440
g949
I0
sg950
I0
sg951
g952
sg15
S'RefDiscoveryPolicy'
p1441
sg17
g4
sbag0
(g945
g2
Ntp1442
Rp1443
(dp1444
g949
I67
sg950
I22
sg951
g952
sg15
S'InitiatingHeapOccupancyPercent'
p1445
sg17
g4
sbag0
(g945
g2
Ntp1446
Rp1447
(dp1448
g949
I206158430208
sg950
I68719476736
sg951
g952
sg15
S'MaxRAM'
p1449
sg17
g4
sbag0
(g945
g2
Ntp1450
Rp1451
(dp1452
g949
I0
sg950
I0
sg951
g952
sg15
S'ErgoHeapSizeLimit'
p1453
sg17
g4
sbag0
(g945
g2
Ntp1454
Rp1455
(dp1456
g949
I6
sg950
I2
sg951
g952
sg15
S'MaxRAMFraction'
p1457
sg17
g4
sbag0
(g945
g2
Ntp1458
Rp1459
(dp1460
g949
I6
sg950
I2
sg951
g952
sg15
S'DefaultMaxRAMFraction'
p1461
sg17
g4
sbag0
(g945
g2
Ntp1462
Rp1463
(dp1464
g949
I3
sg950
I1
sg951
g952
sg15
S'MinRAMFraction'
p1465
sg17
g4
sbag0
(g945
g2
Ntp1466
Rp1467
(dp1468
g949
I96
sg950
I32
sg951
g952
sg15
S'InitialRAMFraction'
p1469
sg17
g4
sbag0
(g945
g2
Ntp1470
Rp1471
(dp1472
g949
I7500
sg950
I2500
sg951
g952
sg15
S'AutoGCSelectPauseMillis'
p1473
sg17
g4
sbag0
(g945
g2
Ntp1474
Rp1475
(dp1476
g949
I0
sg950
I0
sg951
g952
sg15
S'AdaptiveSizeThroughPutPolicy'
p1477
sg17
g4
sbag0
(g945
g2
Ntp1478
Rp1479
(dp1480
g949
I0
sg950
I0
sg951
g952
sg15
S'AdaptiveSizePausePolicy'
p1481
sg17
g4
sbag0
(g945
g2
Ntp1482
Rp1483
(dp1484
g949
I30
sg950
I10
sg951
g952
sg15
S'AdaptiveSizePolicyInitializingSteps'
p1485
sg17
g4
sbag0
(g945
g2
Ntp1486
Rp1487
(dp1488
g949
I0
sg950
I0
sg951
g952
sg15
S'AdaptiveSizePolicyOutputInterval'
p1489
sg17
g4
sbag0
(g945
g2
Ntp1490
Rp1491
(dp1492
g949
I15
sg950
I5
sg951
g952
sg15
S'AdaptiveSizePolicyWeight'
p1493
sg17
g4
sbag0
(g945
g2
Ntp1494
Rp1495
(dp1496
g949
I37
sg950
I12
sg951
g952
sg15
S'AdaptiveTimeWeight'
p1497
sg17
g4
sbag0
(g945
g2
Ntp1498
Rp1499
(dp1500
g949
I1
sg950
I0
sg951
g952
sg15
S'PausePadding'
p1501
sg17
g4
sbag0
(g945
g2
Ntp1502
Rp1503
(dp1504
g949
I4
sg950
I1
sg951
g952
sg15
S'PromotedPadding'
p1505
sg17
g4
sbag0
(g945
g2
Ntp1506
Rp1507
(dp1508
g949
I4
sg950
I1
sg951
g952
sg15
S'SurvivorPadding'
p1509
sg17
g4
sbag0
(g945
g2
Ntp1510
Rp1511
(dp1512
g949
I30
sg950
I10
sg951
g952
sg15
S'AdaptivePermSizeWeight'
p1513
sg17
g4
sbag0
(g945
g2
Ntp1514
Rp1515
(dp1516
g949
I4
sg950
I1
sg951
g952
sg15
S'PermGenPadding'
p1517
sg17
g4
sbag0
(g945
g2
Ntp1518
Rp1519
(dp1520
g949
I15
sg950
I5
sg951
g952
sg15
S'ThresholdTolerance'
p1521
sg17
g4
sbag0
(g945
g2
Ntp1522
Rp1523
(dp1524
g949
I75
sg950
I25
sg951
g952
sg15
S'AdaptiveSizePolicyCollectionCostMargin'
p1525
sg17
g4
sbag0
(g945
g2
Ntp1526
Rp1527
(dp1528
g949
I30
sg950
I10
sg951
g952
sg15
S'YoungGenerationSizeIncrement'
p1529
sg17
g4
sbag0
(g945
g2
Ntp1530
Rp1531
(dp1532
g949
I120
sg950
I40
sg951
g952
sg15
S'YoungGenerationSizeSupplement'
p1533
sg17
g4
sbag0
(g945
g2
Ntp1534
Rp1535
(dp1536
g949
I12
sg950
I4
sg951
g952
sg15
S'YoungGenerationSizeSupplementDecay'
p1537
sg17
g4
sbag0
(g945
g2
Ntp1538
Rp1539
(dp1540
g949
I30
sg950
I10
sg951
g952
sg15
S'TenuredGenerationSizeIncrement'
p1541
sg17
g4
sbag0
(g945
g2
Ntp1542
Rp1543
(dp1544
g949
I120
sg950
I40
sg951
g952
sg15
S'TenuredGenerationSizeSupplement'
p1545
sg17
g4
sbag0
(g945
g2
Ntp1546
Rp1547
(dp1548
g949
I3
sg950
I1
sg951
g952
sg15
S'TenuredGenerationSizeSupplementDecay'
p1549
sg17
g4
sbag0
(g945
g2
Ntp1550
Rp1551
(dp1552
g949
L27670116110564327424L
sg950
L9223372036854775808L
sg951
g952
sg15
S'MaxGCPauseMillis'
p1553
sg17
g4
sbag0
(g945
g2
Ntp1554
Rp1555
(dp1556
g949
I0
sg950
I0
sg951
g952
sg15
S'GCPauseIntervalMillis'
p1557
sg17
g4
sbag0
(g945
g2
Ntp1558
Rp1559
(dp1560
g949
L27670116110564327424L
sg950
L9223372036854775808L
sg951
g952
sg15
S'MaxGCMinorPauseMillis'
p1561
sg17
g4
sbag0
(g945
g2
Ntp1562
Rp1563
(dp1564
g949
I148
sg950
I49
sg951
g952
sg15
S'GCTimeRatio'
p1565
sg17
g4
sbag0
(g945
g2
Ntp1566
Rp1567
(dp1568
g949
I6
sg950
I2
sg951
g952
sg15
S'AdaptiveSizeDecrementScaleFactor'
p1569
sg17
g4
sbag0
(g945
g2
Ntp1570
Rp1571
(dp1572
g949
I15
sg950
I5
sg951
g952
sg15
S'AdaptiveSizeMajorGCDecayTimeScale'
p1573
sg17
g4
sbag0
(g945
g2
Ntp1574
Rp1575
(dp1576
g949
I4
sg950
I1
sg951
g952
sg15
S'MinSurvivorRatio'
p1577
sg17
g4
sbag0
(g945
g2
Ntp1578
Rp1579
(dp1580
g949
I12
sg950
I4
sg951
g952
sg15
S'InitialSurvivorRatio'
p1581
sg17
g4
sbag0
(g945
g2
Ntp1582
Rp1583
(dp1584
g949
I402653184
sg950
I134217728
sg951
g952
sg15
S'BaseFootPrintEstimate'
p1585
sg17
g4
sbag0
(g945
g2
Ntp1586
Rp1587
(dp1588
g949
I147
sg950
I49
sg951
g952
sg15
S'GCTimeLimit'
p1589
sg17
g4
sbag0
(g945
g2
Ntp1590
Rp1591
(dp1592
g949
I3
sg950
I1
sg951
g952
sg15
S'GCHeapFreeLimit'
p1593
sg17
g4
sbag0
(g945
g2
Ntp1594
Rp1595
(dp1596
g949
I864
sg950
I288
sg951
g952
sg15
S'PrefetchCopyIntervalInBytes'
p1597
sg17
g4
sbag0
(g945
g2
Ntp1598
Rp1599
(dp1600
g949
I864
sg950
I288
sg951
g952
sg15
S'PrefetchScanIntervalInBytes'
p1601
sg17
g4
sbag0
(g945
g2
Ntp1602
Rp1603
(dp1604
g949
I1
sg950
I0
sg951
g952
sg15
S'PrefetchFieldsAhead'
p1605
sg17
g4
sbag0
(g945
g2
Ntp1606
Rp1607
(dp1608
g949
I6
sg950
I2
sg951
g952
sg15
S'ProcessDistributionStride'
p1609
sg17
g4
sbag0
(g945
g2
Ntp1610
Rp1611
(dp1612
g949
I12
sg950
I4
sg951
g952
sg15
S'ParallelGCThreads'
p1613
sg17
g4
sbag0
(g945
g2
Ntp1614
Rp1615
(dp1616
g949
I15
sg950
I5
sg951
g952
sg15
S'ParallelGCBufferWastePct'
p1617
sg17
g4
sbag0
(g945
g2
Ntp1618
Rp1619
(dp1620
g949
I75
sg950
I25
sg951
g952
sg15
S'ParallelOldDeadWoodLimiterMean'
p1621
sg17
g4
sbag0
(g945
g2
Ntp1622
Rp1623
(dp1624
g949
I120
sg950
I40
sg951
g952
sg15
S'ParallelOldDeadWoodLimiterStdDev'
p1625
sg17
g4
sbag0
(g945
g2
Ntp1626
Rp1627
(dp1628
g949
I0
sg950
I-1
sg951
g952
sg15
S'CMSInitiatingOccupancyFraction'
p1629
sg17
g4
sbag0
(g945
g2
Ntp1630
Rp1631
(dp1632
g949
I0
sg950
I0
sg951
g952
sg15
S'ConcGCThreads'
p1633
sg17
g4
sbag0
(g945
g2
Ntp1634
Rp1635
(dp1636
g949
I0
sg950
I-1
sg951
g952
sg15
S'CMSInitiatingPermOccupancyFraction'
p1637
sg17
g4
sbag0
(g945
g2
Ntp1638
Rp1639
(dp1640
g949
I0
sg950
I0
sg951
g952
sg15
S'CMSIncrementalDutyCycleMin'
p1641
sg17
g4
sbag0
(g945
g2
Ntp1642
Rp1643
(dp1644
g949
I15
sg950
I5
sg951
g952
sg15
S'CMSIncrementalDutyCycle'
p1645
sg17
g4
sbag0
(g945
g2
Ntp1646
Rp1647
(dp1648
g949
I150
sg950
I50
sg951
g952
sg15
S'CMSAbortablePrecleanMinWorkPerIteration'
p1649
sg17
g4
sbag0
(g945
g2
Ntp1650
Rp1651
(dp1652
g949
I150
sg950
I50
sg951
g952
sg15
S'CMSAbortablePrecleanWaitMillis'
p1653
sg17
g4
sbag0
(g945
g2
Ntp1654
Rp1655
(dp1656
g949
I15728640
sg950
I5242880
sg951
g952
sg15
S'CMSBitMapYieldQuantum'
p1657
sg17
g4
sbag0
(g945
g2
Ntp1658
Rp1659
(dp1660
g949
I75
sg950
I25
sg951
g952
sg15
S'CMSBootstrapOccupancy'
p1661
sg17
g4
sbag0
(g945
g2
Ntp1662
Rp1663
(dp1664
g949
I0
sg950
I0
sg951
g952
sg15
S'CMSClassUnloadingMaxInterval'
p1665
sg17
g4
sbag0
(g945
g2
Ntp1666
Rp1667
(dp1668
g949
I48
sg950
I16
sg951
g952
sg15
S'CMSConcMarkMultiple'
p1669
sg17
g4
sbag0
(g945
g2
Ntp1670
Rp1671
(dp1672
g949
I15
sg950
I5
sg951
g952
sg15
S'CMSCoordinatorYieldSleepCount'
p1673
sg17
g4
sbag0
(g945
g2
Ntp1674
Rp1675
(dp1676
g949
I75
sg950
I25
sg951
g952
sg15
S'CMSExpAvgFactor'
p1677
sg17
g4
sbag0
(g945
g2
Ntp1678
Rp1679
(dp1680
g949
I0
sg950
I0
sg951
g952
sg15
S'CMSFullGCsBeforeCompaction'
p1681
sg17
g4
sbag0
(g945
g2
Ntp1682
Rp1683
(dp1684
g949
I0
sg950
I0
sg951
g952
sg15
S'CMSIncrementalOffset'
p1685
sg17
g4
sbag0
(g945
g2
Ntp1686
Rp1687
(dp1688
g949
I15
sg950
I5
sg951
g952
sg15
S'CMSIncrementalSafetyFactor'
p1689
sg17
g4
sbag0
(g945
g2
Ntp1690
Rp1691
(dp1692
g949
I6
sg950
I2
sg951
g952
sg15
S'CMSIndexedFreeListReplenish'
p1693
sg17
g4
sbag0
(g945
g2
Ntp1694
Rp1695
(dp1696
g949
I147
sg950
I49
sg951
g952
sg15
S'CMSIsTooFullPercentage'
p1697
sg17
g4
sbag0
(g945
g2
Ntp1698
Rp1699
(dp1700
g949
I1
sg950
I0
sg951
g952
sg15
S'CMSLargeCoalSurplusPercent'
p1701
sg17
g4
sbag0
(g945
g2
Ntp1702
Rp1703
(dp1704
g949
I1
sg950
I0
sg951
g952
sg15
S'CMSLargeSplitSurplusPercent'
p1705
sg17
g4
sbag0
(g945
g2
Ntp1706
Rp1707
(dp1708
g949
I0
sg950
I0
sg951
g952
sg15
S'CMSMaxAbortablePrecleanLoops'
p1709
sg17
g4
sbag0
(g945
g2
Ntp1710
Rp1711
(dp1712
g949
I7500
sg950
I2500
sg951
g952
sg15
S'CMSMaxAbortablePrecleanTime'
p1713
sg17
g4
sbag0
(g945
g2
Ntp1714
Rp1715
(dp1716
g949
I1536
sg950
I512
sg951
g952
sg15
S'CMSOldPLABMax'
p1717
sg17
g4
sbag0
(g945
g2
Ntp1718
Rp1719
(dp1720
g949
I24
sg950
I8
sg951
g952
sg15
S'CMSOldPLABMin'
p1721
sg17
g4
sbag0
(g945
g2
Ntp1722
Rp1723
(dp1724
g949
I6
sg950
I2
sg951
g952
sg15
S'CMSOldPLABNumRefills'
p1725
sg17
g4
sbag0
(g945
g2
Ntp1726
Rp1727
(dp1728
g949
I3
sg950
I1
sg951
g952
sg15
S'CMSOldPLABReactivityFactor'
p1729
sg17
g4
sbag0
(g945
g2
Ntp1730
Rp1731
(dp1732
g949
I6
sg950
I2
sg951
g952
sg15
S'CMSOldPLABToleranceFactor'
p1733
sg17
g4
sbag0
(g945
g2
Ntp1734
Rp1735
(dp1736
g949
I4
sg950
I1
sg951
g952
sg15
S'CMSPrecleanDenominator'
p1737
sg17
g4
sbag0
(g945
g2
Ntp1738
Rp1739
(dp1740
g949
I4
sg950
I1
sg951
g952
sg15
S'CMSPrecleanIter'
p1741
sg17
g4
sbag0
(g945
g2
Ntp1742
Rp1743
(dp1744
g949
I24
sg950
I8
sg951
g952
sg15
S'CMSParPromoteBlocksToClaim'
p1745
sg17
g4
sbag0
(g945
g2
Ntp1746
Rp1747
(dp1748
g949
I3
sg950
I1
sg951
g952
sg15
S'CMSPrecleanNumerator'
p1749
sg17
g4
sbag0
(g945
g2
Ntp1750
Rp1751
(dp1752
g949
I1500
sg950
I500
sg951
g952
sg15
S'CMSPrecleanThreshold'
p1753
sg17
g4
sbag0
(g945
g2
Ntp1754
Rp1755
(dp1756
g949
I1
sg950
I0
sg951
g952
sg15
S'CMSRemarkVerifyVariant'
p1757
sg17
g4
sbag0
(g945
g2
Ntp1758
Rp1759
(dp1760
g949
I48
sg950
I16
sg951
g952
sg15
S'CMSRescanMultiple'
p1761
sg17
g4
sbag0
(g945
g2
Ntp1762
Rp1763
(dp1764
g949
I1572864
sg950
I524288
sg951
g952
sg15
S'CMSRevisitStackSize'
p1765
sg17
g4
sbag0
(g945
g2
Ntp1766
Rp1767
(dp1768
g949
I24576
sg950
I8192
sg951
g952
sg15
S'CMSSamplingGrain'
p1769
sg17
g4
sbag0
(g945
g2
Ntp1770
Rp1771
(dp1772
g949
I75
sg950
I25
sg951
g952
sg15
S'CMSScheduleRemarkEdenPenetration'
p1773
sg17
g4
sbag0
(g945
g2
Ntp1774
Rp1775
(dp1776
g949
I3145728
sg950
I1048576
sg951
g952
sg15
S'CMSScheduleRemarkEdenSizeThreshold'
p1777
sg17
g4
sbag0
(g945
g2
Ntp1778
Rp1779
(dp1780
g949
I7
sg950
I2
sg951
g952
sg15
S'CMSScheduleRemarkSamplingRatio'
p1781
sg17
g4
sbag0
(g945
g2
Ntp1782
Rp1783
(dp1784
g949
I1
sg950
I0
sg951
g952
sg15
S'CMSSmallCoalSurplusPercent'
p1785
sg17
g4
sbag0
(g945
g2
Ntp1786
Rp1787
(dp1788
g949
I1
sg950
I0
sg951
g952
sg15
S'CMSSmallSplitSurplusPercent'
p1789
sg17
g4
sbag0
(g945
g2
Ntp1790
Rp1791
(dp1792
g949
I120
sg950
I40
sg951
g952
sg15
S'CMSTriggerPermRatio'
p1793
sg17
g4
sbag0
(g945
g2
Ntp1794
Rp1795
(dp1796
g949
I120
sg950
I40
sg951
g952
sg15
S'CMSTriggerRatio'
p1797
sg17
g4
sbag0
(g945
g2
Ntp1798
Rp1799
(dp1800
g949
I3000
sg950
I1000
sg951
g952
sg15
S'CMSWaitDuration'
p1801
sg17
g4
sbag0
(g945
g2
Ntp1802
Rp1803
(dp1804
g949
I15
sg950
I5
sg951
g952
sg15
S'CMSWorkQueueDrainThreshold'
p1805
sg17
g4
sbag0
(g945
g2
Ntp1806
Rp1807
(dp1808
g949
I0
sg950
I0
sg951
g952
sg15
S'CMSYieldSleepCount'
p1809
sg17
g4
sbag0
(g945
g2
Ntp1810
Rp1811
(dp1812
g949
I1
sg950
I0
sg951
g952
sg15
S'CMS_FLSPadding'
p1813
sg17
g4
sbag0
(g945
g2
Ntp1814
Rp1815
(dp1816
g949
I112
sg950
I37
sg951
g952
sg15
S'CMS_FLSWeight'
p1817
sg17
g4
sbag0
(g945
g2
Ntp1818
Rp1819
(dp1820
g949
I1
sg950
I0
sg951
g952
sg15
S'CMS_SweepPadding'
p1821
sg17
g4
sbag0
(g945
g2
Ntp1822
Rp1823
(dp1824
g949
I15
sg950
I5
sg951
g952
sg15
S'CMS_SweepTimerThresholdMillis'
p1825
sg17
g4
sbag0
(g945
g2
Ntp1826
Rp1827
(dp1828
g949
I112
sg950
I37
sg951
g952
sg15
S'CMS_SweepWeight'
p1829
sg17
g4
sbag0
(g945
g2
Ntp1830
Rp1831
(dp1832
g949
I75
sg950
I25
sg951
g952
sg15
S'ParGCArrayScanChunk'
p1833
sg17
g4
sbag0
(g945
g2
Ntp1834
Rp1835
(dp1836
g949
I30
sg950
I10
sg951
g952
sg15
S'ParGCDesiredObjsFromOverflowList'
p1837
sg17
g4
sbag0
(g945
g2
Ntp1838
Rp1839
(dp1840
g949
I100663296
sg950
I33554432
sg951
g952
sg15
S'CMSYoungGenPerWorker'
p1841
sg17
g4
sbag0
(g945
g2
Ntp1842
Rp1843
(dp1844
g949
I75
sg950
I25
sg951
g952
sg15
S'G1ConfidencePercent'
p1845
sg17
g4
sbag0
(g945
g2
Ntp1846
Rp1847
(dp1848
g949
I15
sg950
I5
sg951
g952
sg15
S'G1ConcMarkStepDurationMillis'
p1849
sg17
g4
sbag0
(g945
g2
Ntp1850
Rp1851
(dp1852
g949
I15
sg950
I5
sg951
g952
sg15
S'G1RefProcDrainInterval'
p1853
sg17
g4
sbag0
(g945
g2
Ntp1854
Rp1855
(dp1856
g949
I1536
sg950
I512
sg951
g952
sg15
S'G1SATBBufferSize'
p1857
sg17
g4
sbag0
(g945
g2
Ntp1858
Rp1859
(dp1860
g949
I90
sg950
I30
sg951
g952
sg15
S'G1SATBBufferEnqueueingThresholdPercent'
p1861
sg17
g4
sbag0
(g945
g2
Ntp1862
Rp1863
(dp1864
g949
I384
sg950
I128
sg951
g952
sg15
S'G1UpdateBufferSize'
p1865
sg17
g4
sbag0
(g945
g2
Ntp1866
Rp1867
(dp1868
g949
I0
sg950
I0
sg951
g952
sg15
S'G1ConcRefinementYellowZone'
p1869
sg17
g4
sbag0
(g945
g2
Ntp1870
Rp1871
(dp1872
g949
I0
sg950
I0
sg951
g952
sg15
S'G1ConcRefinementRedZone'
p1873
sg17
g4
sbag0
(g945
g2
Ntp1874
Rp1875
(dp1876
g949
I0
sg950
I0
sg951
g952
sg15
S'G1ConcRefinementGreenZone'
p1877
sg17
g4
sbag0
(g945
g2
Ntp1878
Rp1879
(dp1880
g949
I450
sg950
I150
sg951
g952
sg15
S'G1ConcRefinementServiceIntervalMillis'
p1881
sg17
g4
sbag0
(g945
g2
Ntp1882
Rp1883
(dp1884
g949
I0
sg950
I0
sg951
g952
sg15
S'G1ConcRefinementThresholdStep'
p1885
sg17
g4
sbag0
(g945
g2
Ntp1886
Rp1887
(dp1888
g949
I15
sg950
I5
sg951
g952
sg15
S'G1RSetUpdatingPauseTimePercent'
p1889
sg17
g4
sbag0
(g945
g2
Ntp1890
Rp1891
(dp1892
g949
I0
sg950
I0
sg951
g952
sg15
S'G1RSetRegionEntries'
p1893
sg17
g4
sbag0
(g945
g2
Ntp1894
Rp1895
(dp1896
g949
I0
sg950
I0
sg951
g952
sg15
S'G1RSetSparseRegionEntries'
p1897
sg17
g4
sbag0
(g945
g2
Ntp1898
Rp1899
(dp1900
g949
I15
sg950
I5
sg951
g952
sg15
S'G1ReservePercent'
p1901
sg17
g4
sbag0
(g945
g2
Ntp1902
Rp1903
(dp1904
g949
I0
sg950
I0
sg951
g952
sg15
S'G1HeapRegionSize'
p1905
sg17
g4
sbag0
(g945
g2
Ntp1906
Rp1907
(dp1908
g949
I0
sg950
I0
sg951
g952
sg15
S'G1ConcRefinementThreads'
p1909
sg17
g4
sbag0
(g945
g2
Ntp1910
Rp1911
(dp1912
g949
I96
sg950
I32
sg951
g952
sg15
S'G1RSetScanBlockSize'
p1913
sg17
g4
sbag0
(g945
g2
Ntp1914
Rp1915
(dp1916
g949
I30
sg950
I10
sg951
g952
sg15
S'ProfileMaturityPercentage'
p1917
sg17
g4
sbag0
(g945
g2
Ntp1918
Rp1919
(dp1920
g949
I78643200
sg950
I26214400
sg951
g952
sg15
S'ThreadSafetyMargin'
p1921
sg17
g4
sbag0
(g945
g2
Ntp1922
Rp1923
(dp1924
g949
I3
sg950
I1
sg951
g952
sg15
S'StackYellowPages'
p1925
sg17
g4
sbag0
(g945
g2
Ntp1926
Rp1927
(dp1928
g949
I30
sg950
I10
sg951
g952
sg15
S'StackShadowPages'
p1929
sg17
g4
sbag0
(g945
g2
Ntp1930
Rp1931
(dp1932
g949
I1536
sg950
I512
sg951
g952
sg15
S'ThreadStackSize'
p1933
sg17
g4
sbag0
(g945
g2
Ntp1934
Rp1935
(dp1936
g949
I1536
sg950
I512
sg951
g952
sg15
S'VMThreadStackSize'
p1937
sg17
g4
sbag0
(g945
g2
Ntp1938
Rp1939
(dp1940
g949
I0
sg950
I0
sg951
g952
sg15
S'CompilerThreadStackSize'
p1941
sg17
g4
sbag0
(g945
g2
Ntp1942
Rp1943
(dp1944
g949
I805306368
sg950
I268435456
sg951
g952
sg15
S'SharedDummyBlockSize'
p1945
sg17
g4
sbag0
(g945
g2
Ntp1946
Rp1947
(dp1948
g949
I22020096
sg950
I7340032
sg951
g952
sg15
S'SharedReadWriteSize'
p1949
sg17
g4
sbag0
(g945
g2
Ntp1950
Rp1951
(dp1952
g949
I15728640
sg950
I5242880
sg951
g952
sg15
S'SharedReadOnlySize'
p1953
sg17
g4
sbag0
(g945
g2
Ntp1954
Rp1955
(dp1956
g949
I9437184
sg950
I3145728
sg951
g952
sg15
S'SharedMiscDataSize'
p1957
sg17
g4
sbag0
(g945
g2
Ntp1958
Rp1959
(dp1960
g949
I6291456
sg950
I2097152
sg951
g952
sg15
S'SharedMiscCodeSize'
p1961
sg17
g4
sbag0
(g945
g2
Ntp1962
Rp1963
(dp1964
g949
I0
sg950
I0
sg951
g952
sg15
S'ThreadPriorityPolicy'
p1965
sg17
g4
sbag0
(g945
g2
Ntp1966
Rp1967
(dp1968
g949
I0
sg950
I-1
sg951
g952
sg15
S'DefaultThreadPriority'
p1969
sg17
g4
sbag0
(g945
g2
Ntp1970
Rp1971
(dp1972
g949
I0
sg950
I-1
sg951
g952
sg15
S'CompilerThreadPriority'
p1973
sg17
g4
sbag0
(g945
g2
Ntp1974
Rp1975
(dp1976
g949
I0
sg950
I-1
sg951
g952
sg15
S'VMThreadPriority'
p1977
sg17
g4
sbag0
(g945
g2
Ntp1978
Rp1979
(dp1980
g949
I0
sg950
I-1
sg951
g952
sg15
S'JavaPriority1_To_OSPriority'
p1981
sg17
g4
sbag0
(g945
g2
Ntp1982
Rp1983
(dp1984
g949
I0
sg950
I-1
sg951
g952
sg15
S'JavaPriority2_To_OSPriority'
p1985
sg17
g4
sbag0
(g945
g2
Ntp1986
Rp1987
(dp1988
g949
I0
sg950
I-1
sg951
g952
sg15
S'JavaPriority3_To_OSPriority'
p1989
sg17
g4
sbag0
(g945
g2
Ntp1990
Rp1991
(dp1992
g949
I0
sg950
I-1
sg951
g952
sg15
S'JavaPriority4_To_OSPriority'
p1993
sg17
g4
sbag0
(g945
g2
Ntp1994
Rp1995
(dp1996
g949
I0
sg950
I-1
sg951
g952
sg15
S'JavaPriority5_To_OSPriority'
p1997
sg17
g4
sbag0
(g945
g2
Ntp1998
Rp1999
(dp2000
g949
I0
sg950
I-1
sg951
g952
sg15
S'JavaPriority6_To_OSPriority'
p2001
sg17
g4
sbag0
(g945
g2
Ntp2002
Rp2003
(dp2004
g949
I0
sg950
I-1
sg951
g952
sg15
S'JavaPriority7_To_OSPriority'
p2005
sg17
g4
sbag0
(g945
g2
Ntp2006
Rp2007
(dp2008
g949
I0
sg950
I-1
sg951
g952
sg15
S'JavaPriority8_To_OSPriority'
p2009
sg17
g4
sbag0
(g945
g2
Ntp2010
Rp2011
(dp2012
g949
I0
sg950
I-1
sg951
g952
sg15
S'JavaPriority9_To_OSPriority'
p2013
sg17
g4
sbag0
(g945
g2
Ntp2014
Rp2015
(dp2016
g949
I0
sg950
I-1
sg951
g952
sg15
S'JavaPriority10_To_OSPriority'
p2017
sg17
g4
sbag0
(g945
g2
Ntp2018
Rp2019
(dp2020
g949
I30
sg950
I10
sg951
g952
sg15
S'NUMAChunkResizeWeight'
p2021
sg17
g4
sbag0
(g945
g2
Ntp2022
Rp2023
(dp2024
g949
I1610612736
sg950
I536870912
sg951
g952
sg15
S'NUMASpaceResizeRate'
p2025
sg17
g4
sbag0
(g945
g2
Ntp2026
Rp2027
(dp2028
g949
I384
sg950
I128
sg951
g952
sg15
S'NUMAPageScanRate'
p2029
sg17
g4
sbag0
(g945
g2
Ntp2030
Rp2031
(dp2032
g949
I6
sg950
I2
sg951
g952
sg15
S'UseSSE'
p2033
sg17
g4
sbag0
(g945
g2
Ntp2034
Rp2035
(dp2036
g949
I0
sg950
I0
sg951
g952
sg15
S'LargePageSizeInBytes'
p2037
sg17
g4
sbag0
(g945
g2
Ntp2038
Rp2039
(dp2040
g949
I201326592
sg950
I67108864
sg951
g952
sg15
S'LargePageHeapSizeThreshold'
p2041
sg17
g4
sbag0
(g11
g2
Ntp2042
Rp2043
(dp2044
g15
S'type'
p2045
sg17
g4
sg18
(lp2046
g20
ag21
asbag0
(g11
g2
Ntp2047
Rp2048
(dp2049
g15
S'name'
p2050
sg17
g4
sg18
(lp2051
g20
ag21
asbag0
(g11
g2
Ntp2052
Rp2053
(dp2054
g15
S'min'
p2055
sg17
g4
sg18
(lp2056
g20
ag21
asbag0
(g11
g2
Ntp2057
Rp2058
(dp2059
g15
S'max'
p2060
sg17
g4
sg18
(lp2061
g20
ag21
asbag0
(g945
g2
Ntp2062
Rp2063
(dp2064
g949
I400
sg950
I0
sg951
g952
sg15
S'StartServers'
p2065
sg17
g4
sbag0
(g945
g2
Ntp2066
Rp2067
(dp2068
g949
I400
sg950
I0
sg951
g952
sg15
S'MinSpareThreads'
p2069
sg17
g4
sbag0
(g945
g2
Ntp2070
Rp2071
(dp2072
g949
I400
sg950
I0
sg951
g952
sg15
S'MaxSpareThreads'
p2073
sg17
g4
sbag0
(g945
g2
Ntp2074
Rp2075
(dp2076
g949
I400
sg950
I0
sg951
g952
sg15
S'ThreadLimit'
p2077
sg17
g4
sbag0
(g945
g2
Ntp2078
Rp2079
(dp2080
g949
I400
sg950
I0
sg951
g952
sg15
S'ThreadsPerChild'
p2081
sg17
g4
sbag0
(g945
g2
Ntp2082
Rp2083
(dp2084
g949
I400
sg950
I0
sg951
g952
sg15
S'MaxRequestWorkers'
p2085
sg17
g4
sbag0
(g945
g2
Ntp2086
Rp2087
(dp2088
g949
I400
sg950
I0
sg951
g952
sg15
S'MaxConnectionsPerChild'
p2089
sg17
g4
sbag0
(g11
g2
Ntp2090
Rp2091
(dp2092
g15
S'type'
p2093
sg17
g4
sg18
(lp2094
g20
ag21
asbag0
(g11
g2
Ntp2095
Rp2096
(dp2097
g15
S'name'
p2098
sg17
g4
sg18
(lp2099
g20
ag21
asbag0
(g11
g2
Ntp2100
Rp2101
(dp2102
g15
S'min'
p2103
sg17
g4
sg18
(lp2104
g20
ag21
asbag0
(g11
g2
Ntp2105
Rp2106
(dp2107
g15
S'max'
p2108
sg17
g4
sg18
(lp2109
g20
ag21
asbag0
(g945
g2
Ntp2110
Rp2111
(dp2112
g949
I100000
sg950
I1
sg951
g952
sg15
S'max_connections'
p2113
sg17
g4
sbag0
(g945
g2
Ntp2114
Rp2115
(dp2116
g949
I1073741824
sg950
I1024
sg951
g952
sg15
S'max_allowed_packet'
p2117
sg17
g4
sbag0
(g945
g2
Ntp2118
Rp2119
(dp2120
g949
I10000
sg950
I1
sg951
g952
sg15
S'max_connect_errors'
p2121
sg17
g4
sbag0
(g945
g2
Ntp2122
Rp2123
(dp2124
g949
I524288
sg950
I1
sg951
g952
sg15
S'table_cache'
p2125
sg17
g4
sbag0
(g945
g2
Ntp2126
Rp2127
(dp2128
g949
I4294967295
sg950
I8
sg951
g952
sg15
S'key_buffer_size'
p2129
sg17
g4
sbag0
(g945
g2
Ntp2130
Rp2131
(dp2132
g949
I8589934592
sg950
I5242880
sg951
g952
sg15
S'innodb_buffer_pool_size'
p2133
sg17
g4
sbag0
(g945
g2
Ntp2134
Rp2135
(dp2136
g949
I4294967295
sg950
I32768
sg951
g952
sg15
S'sort_buffer_size'
p2137
sg17
g4
sbag0
(g945
g2
Ntp2138
Rp2139
(dp2140
g949
I4294967295
sg950
I8200
sg951
g952
sg15
S'read_buffer_size'
p2141
sg17
g4
sbag0
(g945
g2
Ntp2142
Rp2143
(dp2144
g949
I4294967295
sg950
I131072
sg951
g952
sg15
S'thread_stack'
p2145
sg17
g4
sbag0
(g945
g2
Ntp2146
Rp2147
(dp2148
g949
I16384
sg950
I0
sg951
g952
sg15
S'thread_cache_size'
p2149
sg17
g4
sbag0
(g945
g2
Ntp2150
Rp2151
(dp2152
g949
I4294967295
sg950
I0
sg951
g952
sg15
S'query_cache_limit'
p2153
sg17
g4
sbag0
(g945
g2
Ntp2154
Rp2155
(dp2156
g949
I4294967295
sg950
I0
sg951
g952
sg15
S'query_cache_size'
p2157
sg17
g4
sbag0
(g11
g2
Ntp2158
Rp2159
(dp2160
g15
S'type'
p2161
sg17
g4
sg18
(lp2162
g20
ag21
asbag0
(g11
g2
Ntp2163
Rp2164
(dp2165
g15
S'name'
p2166
sg17
g4
sg18
(lp2167
g20
ag21
asbag0
(g11
g2
Ntp2168
Rp2169
(dp2170
g15
S'min'
p2171
sg17
g4
sg18
(lp2172
g20
ag21
asbag0
(g11
g2
Ntp2173
Rp2174
(dp2175
g15
S'max'
p2176
sg17
g4
sg18
(lp2177
g20
ag21
asbag0
(g945
g2
Ntp2178
Rp2179
(dp2180
g949
I1000
sg950
I1
sg951
g952
sg15
S'AJP_acceptorThreadCount'
p2181
sg17
g4
sbag0
(g945
g2
Ntp2182
Rp2183
(dp2184
g949
I10000
sg950
I1
sg951
g952
sg15
S'AJP_maxThreads'
p2185
sg17
g4
sbag0
(g945
g2
Ntp2186
Rp2187
(dp2188
g949
I10000
sg950
I1
sg951
g952
sg15
S'AJP_acceptCount'
p2189
sg17
g4
sbag0
(g945
g2
Ntp2190
Rp2191
(dp2192
g949
I10000
sg950
I1
sg951
g952
sg15
S'AJP_minSpareThreads'
p2193
sg17
g4
sbasS'_seed_config'
p2194
Nsb.